SF:/Users/canggih/Documents/Kedata/cleanstorage/dev-cleaner/src/app/actions.rs
FN:135,_RNCNCNCNCNCNvMNtNtCshVE6m5yoyjE_8devsweep3app7actionsNtNtBe_5state8DevSweep10start_scan00000Bg_
FN:150,_RNCNCNCNCNCNvMNtNtCshVE6m5yoyjE_8devsweep3app7actionsNtNtBe_5state8DevSweep10start_scan0000s_0Bg_
FN:128,_RNCNCNCNCNvMNtNtCshVE6m5yoyjE_8devsweep3app7actionsNtNtBc_5state8DevSweep10start_scan0000Be_
FN:371,_RNCNCNCNCNvMNtNtCshVE6m5yoyjE_8devsweep3app7actionsNtNtBc_5state8DevSweep11undo_record0000Be_
FN:331,_RNCNCNCNCNvMNtNtCshVE6m5yoyjE_8devsweep3app7actionsNtNtBc_5state8DevSweep15execute_cleanup0000Be_
FN:446,_RNCNCNCNCNvMNtNtCshVE6m5yoyjE_8devsweep3app7actionsNtNtBc_5state8DevSweep20clear_all_quarantine0000Be_
FN:411,_RNCNCNCNCNvMNtNtCshVE6m5yoyjE_8devsweep3app7actionsNtNtBc_5state8DevSweep22delete_quarantine_item0000Be_
FN:127,_RNCNCNCNvMNtNtCshVE6m5yoyjE_8devsweep3app7actionsNtNtBa_5state8DevSweep10start_scan000Bc_
FN:370,_RNCNCNCNvMNtNtCshVE6m5yoyjE_8devsweep3app7actionsNtNtBa_5state8DevSweep11undo_record000Bc_
FN:330,_RNCNCNCNvMNtNtCshVE6m5yoyjE_8devsweep3app7actionsNtNtBa_5state8DevSweep15execute_cleanup000Bc_
FN:445,_RNCNCNCNvMNtNtCshVE6m5yoyjE_8devsweep3app7actionsNtNtBa_5state8DevSweep20clear_all_quarantine000Bc_
FN:410,_RNCNCNCNvMNtNtCshVE6m5yoyjE_8devsweep3app7actionsNtNtBa_5state8DevSweep22delete_quarantine_item000Bc_
FN:114,_RNCNCNvMNtNtCshVE6m5yoyjE_8devsweep3app7actionsNtNtB8_5state8DevSweep10start_scan00Ba_
FN:251,_RNCNCNvMNtNtCshVE6m5yoyjE_8devsweep3app7actionsNtNtB8_5state8DevSweep11toggle_item00Ba_
FN:271,_RNCNCNvMNtNtCshVE6m5yoyjE_8devsweep3app7actionsNtNtB8_5state8DevSweep11toggle_items1_00Ba_
FN:364,_RNCNCNvMNtNtCshVE6m5yoyjE_8devsweep3app7actionsNtNtB8_5state8DevSweep11undo_record00Ba_
FN:324,_RNCNCNvMNtNtCshVE6m5yoyjE_8devsweep3app7actionsNtNtB8_5state8DevSweep15execute_cleanup00Ba_
FN:214,_RNCNCNvMNtNtCshVE6m5yoyjE_8devsweep3app7actionsNtNtB8_5state8DevSweep15toggle_categorys_00Ba_
FN:22,_RNCNCNvMNtNtCshVE6m5yoyjE_8devsweep3app7actionsNtNtB8_5state8DevSweep18refresh_quarantine00Ba_
FN:29,_RNCNCNvMNtNtCshVE6m5yoyjE_8devsweep3app7actionsNtNtB8_5state8DevSweep18refresh_quarantine0s_0Ba_
FN:48,_RNCNCNvMNtNtCshVE6m5yoyjE_8devsweep3app7actionsNtNtB8_5state8DevSweep18refresh_quarantines_00Ba_
FN:439,_RNCNCNvMNtNtCshVE6m5yoyjE_8devsweep3app7actionsNtNtB8_5state8DevSweep20clear_all_quarantine00Ba_
FN:404,_RNCNCNvMNtNtCshVE6m5yoyjE_8devsweep3app7actionsNtNtB8_5state8DevSweep22delete_quarantine_item00Ba_
FN:183,_RNCNvMNtNtCshVE6m5yoyjE_8devsweep3app7actionsNtNtB6_5state8DevSweep10start_scan0B8_
FN:249,_RNCNvMNtNtCshVE6m5yoyjE_8devsweep3app7actionsNtNtB6_5state8DevSweep11toggle_item0B8_
FN:261,_RNCNvMNtNtCshVE6m5yoyjE_8devsweep3app7actionsNtNtB6_5state8DevSweep11toggle_items0_0B8_
FN:268,_RNCNvMNtNtCshVE6m5yoyjE_8devsweep3app7actionsNtNtB6_5state8DevSweep11toggle_items1_0B8_
FN:255,_RNCNvMNtNtCshVE6m5yoyjE_8devsweep3app7actionsNtNtB6_5state8DevSweep11toggle_items_0B8_
FN:388,_RNCNvMNtNtCshVE6m5yoyjE_8devsweep3app7actionsNtNtB6_5state8DevSweep11undo_record0B8_
FN:347,_RNCNvMNtNtCshVE6m5yoyjE_8devsweep3app7actionsNtNtB6_5state8DevSweep15execute_cleanup0B8_
FN:203,_RNCNvMNtNtCshVE6m5yoyjE_8devsweep3app7actionsNtNtB6_5state8DevSweep15toggle_category0B8_
FN:210,_RNCNvMNtNtCshVE6m5yoyjE_8devsweep3app7actionsNtNtB6_5state8DevSweep15toggle_categorys_0B8_
FN:77,_RNCNvMNtNtCshVE6m5yoyjE_8devsweep3app7actionsNtNtB6_5state8DevSweep18refresh_cache_ttls0B8_
FN:81,_RNCNvMNtNtCshVE6m5yoyjE_8devsweep3app7actionsNtNtB6_5state8DevSweep18refresh_cache_ttlss_0B8_
FN:16,_RNCNvMNtNtCshVE6m5yoyjE_8devsweep3app7actionsNtNtB6_5state8DevSweep18refresh_quarantine0B8_
FN:47,_RNCNvMNtNtCshVE6m5yoyjE_8devsweep3app7actionsNtNtB6_5state8DevSweep18refresh_quarantines_0B8_
FN:463,_RNCNvMNtNtCshVE6m5yoyjE_8devsweep3app7actionsNtNtB6_5state8DevSweep20clear_all_quarantine0B8_
FN:428,_RNCNvMNtNtCshVE6m5yoyjE_8devsweep3app7actionsNtNtB6_5state8DevSweep22delete_quarantine_item0B8_
FN:279,_RNvMNtNtCshVE6m5yoyjE_8devsweep3app7actionsNtNtB4_5state8DevSweep10select_all
FN:93,_RNvMNtNtCshVE6m5yoyjE_8devsweep3app7actionsNtNtB4_5state8DevSweep10start_scan
FN:235,_RNvMNtNtCshVE6m5yoyjE_8devsweep3app7actionsNtNtB4_5state8DevSweep11toggle_item
FN:357,_RNvMNtNtCshVE6m5yoyjE_8devsweep3app7actionsNtNtB4_5state8DevSweep11undo_record
FN:293,_RNvMNtNtCshVE6m5yoyjE_8devsweep3app7actionsNtNtB4_5state8DevSweep12deselect_all
FN:310,_RNvMNtNtCshVE6m5yoyjE_8devsweep3app7actionsNtNtB4_5state8DevSweep15execute_cleanup
FN:187,_RNvMNtNtCshVE6m5yoyjE_8devsweep3app7actionsNtNtB4_5state8DevSweep15toggle_category
FN:71,_RNvMNtNtCshVE6m5yoyjE_8devsweep3app7actionsNtNtB4_5state8DevSweep18refresh_cache_ttls
FN:10,_RNvMNtNtCshVE6m5yoyjE_8devsweep3app7actionsNtNtB4_5state8DevSweep18refresh_quarantine
FN:432,_RNvMNtNtCshVE6m5yoyjE_8devsweep3app7actionsNtNtB4_5state8DevSweep20clear_all_quarantine
FN:467,_RNvMNtNtCshVE6m5yoyjE_8devsweep3app7actionsNtNtB4_5state8DevSweep20reset_cache_defaults
FN:392,_RNvMNtNtCshVE6m5yoyjE_8devsweep3app7actionsNtNtB4_5state8DevSweep22delete_quarantine_item
FN:229,_RNvMNtNtCshVE6m5yoyjE_8devsweep3app7actionsNtNtB4_5state8DevSweep22toggle_category_expand
FN:304,_RNvMNtNtCshVE6m5yoyjE_8devsweep3app7actionsNtNtB4_5state8DevSweep23update_selection_counts
FN:351,_RNvMNtNtCshVE6m5yoyjE_8devsweep3app7actionsNtNtB4_5state8DevSweep31toggle_quarantine_record_expand
FN:84,_RNvMNtNtCshVE6m5yoyjE_8devsweep3app7actionsNtNtB4_5state8DevSweep7set_tab
FN:135,_RNCNCNCNCNCNvMNtNtCs3mbXwXxPNJN_8devsweep3app7actionsNtNtBe_5state8DevSweep10start_scan00000Bg_
FN:150,_RNCNCNCNCNCNvMNtNtCs3mbXwXxPNJN_8devsweep3app7actionsNtNtBe_5state8DevSweep10start_scan0000s_0Bg_
FN:128,_RNCNCNCNCNvMNtNtCs3mbXwXxPNJN_8devsweep3app7actionsNtNtBc_5state8DevSweep10start_scan0000Be_
FN:371,_RNCNCNCNCNvMNtNtCs3mbXwXxPNJN_8devsweep3app7actionsNtNtBc_5state8DevSweep11undo_record0000Be_
FN:331,_RNCNCNCNCNvMNtNtCs3mbXwXxPNJN_8devsweep3app7actionsNtNtBc_5state8DevSweep15execute_cleanup0000Be_
FN:446,_RNCNCNCNCNvMNtNtCs3mbXwXxPNJN_8devsweep3app7actionsNtNtBc_5state8DevSweep20clear_all_quarantine0000Be_
FN:411,_RNCNCNCNCNvMNtNtCs3mbXwXxPNJN_8devsweep3app7actionsNtNtBc_5state8DevSweep22delete_quarantine_item0000Be_
FN:127,_RNCNCNCNvMNtNtCs3mbXwXxPNJN_8devsweep3app7actionsNtNtBa_5state8DevSweep10start_scan000Bc_
FN:370,_RNCNCNCNvMNtNtCs3mbXwXxPNJN_8devsweep3app7actionsNtNtBa_5state8DevSweep11undo_record000Bc_
FN:330,_RNCNCNCNvMNtNtCs3mbXwXxPNJN_8devsweep3app7actionsNtNtBa_5state8DevSweep15execute_cleanup000Bc_
FN:445,_RNCNCNCNvMNtNtCs3mbXwXxPNJN_8devsweep3app7actionsNtNtBa_5state8DevSweep20clear_all_quarantine000Bc_
FN:410,_RNCNCNCNvMNtNtCs3mbXwXxPNJN_8devsweep3app7actionsNtNtBa_5state8DevSweep22delete_quarantine_item000Bc_
FN:114,_RNCNCNvMNtNtCs3mbXwXxPNJN_8devsweep3app7actionsNtNtB8_5state8DevSweep10start_scan00Ba_
FN:251,_RNCNCNvMNtNtCs3mbXwXxPNJN_8devsweep3app7actionsNtNtB8_5state8DevSweep11toggle_item00Ba_
FN:271,_RNCNCNvMNtNtCs3mbXwXxPNJN_8devsweep3app7actionsNtNtB8_5state8DevSweep11toggle_items1_00Ba_
FN:364,_RNCNCNvMNtNtCs3mbXwXxPNJN_8devsweep3app7actionsNtNtB8_5state8DevSweep11undo_record00Ba_
FN:324,_RNCNCNvMNtNtCs3mbXwXxPNJN_8devsweep3app7actionsNtNtB8_5state8DevSweep15execute_cleanup00Ba_
FN:214,_RNCNCNvMNtNtCs3mbXwXxPNJN_8devsweep3app7actionsNtNtB8_5state8DevSweep15toggle_categorys_00Ba_
FN:22,_RNCNCNvMNtNtCs3mbXwXxPNJN_8devsweep3app7actionsNtNtB8_5state8DevSweep18refresh_quarantine00Ba_
FN:29,_RNCNCNvMNtNtCs3mbXwXxPNJN_8devsweep3app7actionsNtNtB8_5state8DevSweep18refresh_quarantine0s_0Ba_
FN:48,_RNCNCNvMNtNtCs3mbXwXxPNJN_8devsweep3app7actionsNtNtB8_5state8DevSweep18refresh_quarantines_00Ba_
FN:439,_RNCNCNvMNtNtCs3mbXwXxPNJN_8devsweep3app7actionsNtNtB8_5state8DevSweep20clear_all_quarantine00Ba_
FN:404,_RNCNCNvMNtNtCs3mbXwXxPNJN_8devsweep3app7actionsNtNtB8_5state8DevSweep22delete_quarantine_item00Ba_
FN:183,_RNCNvMNtNtCs3mbXwXxPNJN_8devsweep3app7actionsNtNtB6_5state8DevSweep10start_scan0B8_
FN:249,_RNCNvMNtNtCs3mbXwXxPNJN_8devsweep3app7actionsNtNtB6_5state8DevSweep11toggle_item0B8_
FN:261,_RNCNvMNtNtCs3mbXwXxPNJN_8devsweep3app7actionsNtNtB6_5state8DevSweep11toggle_items0_0B8_
FN:268,_RNCNvMNtNtCs3mbXwXxPNJN_8devsweep3app7actionsNtNtB6_5state8DevSweep11toggle_items1_0B8_
FN:255,_RNCNvMNtNtCs3mbXwXxPNJN_8devsweep3app7actionsNtNtB6_5state8DevSweep11toggle_items_0B8_
FN:388,_RNCNvMNtNtCs3mbXwXxPNJN_8devsweep3app7actionsNtNtB6_5state8DevSweep11undo_record0B8_
FN:347,_RNCNvMNtNtCs3mbXwXxPNJN_8devsweep3app7actionsNtNtB6_5state8DevSweep15execute_cleanup0B8_
FN:203,_RNCNvMNtNtCs3mbXwXxPNJN_8devsweep3app7actionsNtNtB6_5state8DevSweep15toggle_category0B8_
FN:210,_RNCNvMNtNtCs3mbXwXxPNJN_8devsweep3app7actionsNtNtB6_5state8DevSweep15toggle_categorys_0B8_
FN:77,_RNCNvMNtNtCs3mbXwXxPNJN_8devsweep3app7actionsNtNtB6_5state8DevSweep18refresh_cache_ttls0B8_
FN:81,_RNCNvMNtNtCs3mbXwXxPNJN_8devsweep3app7actionsNtNtB6_5state8DevSweep18refresh_cache_ttlss_0B8_
FN:16,_RNCNvMNtNtCs3mbXwXxPNJN_8devsweep3app7actionsNtNtB6_5state8DevSweep18refresh_quarantine0B8_
FN:47,_RNCNvMNtNtCs3mbXwXxPNJN_8devsweep3app7actionsNtNtB6_5state8DevSweep18refresh_quarantines_0B8_
FN:463,_RNCNvMNtNtCs3mbXwXxPNJN_8devsweep3app7actionsNtNtB6_5state8DevSweep20clear_all_quarantine0B8_
FN:428,_RNCNvMNtNtCs3mbXwXxPNJN_8devsweep3app7actionsNtNtB6_5state8DevSweep22delete_quarantine_item0B8_
FN:279,_RNvMNtNtCs3mbXwXxPNJN_8devsweep3app7actionsNtNtB4_5state8DevSweep10select_all
FN:93,_RNvMNtNtCs3mbXwXxPNJN_8devsweep3app7actionsNtNtB4_5state8DevSweep10start_scan
FN:235,_RNvMNtNtCs3mbXwXxPNJN_8devsweep3app7actionsNtNtB4_5state8DevSweep11toggle_item
FN:357,_RNvMNtNtCs3mbXwXxPNJN_8devsweep3app7actionsNtNtB4_5state8DevSweep11undo_record
FN:293,_RNvMNtNtCs3mbXwXxPNJN_8devsweep3app7actionsNtNtB4_5state8DevSweep12deselect_all
FN:310,_RNvMNtNtCs3mbXwXxPNJN_8devsweep3app7actionsNtNtB4_5state8DevSweep15execute_cleanup
FN:187,_RNvMNtNtCs3mbXwXxPNJN_8devsweep3app7actionsNtNtB4_5state8DevSweep15toggle_category
FN:71,_RNvMNtNtCs3mbXwXxPNJN_8devsweep3app7actionsNtNtB4_5state8DevSweep18refresh_cache_ttls
FN:10,_RNvMNtNtCs3mbXwXxPNJN_8devsweep3app7actionsNtNtB4_5state8DevSweep18refresh_quarantine
FN:432,_RNvMNtNtCs3mbXwXxPNJN_8devsweep3app7actionsNtNtB4_5state8DevSweep20clear_all_quarantine
FN:467,_RNvMNtNtCs3mbXwXxPNJN_8devsweep3app7actionsNtNtB4_5state8DevSweep20reset_cache_defaults
FN:392,_RNvMNtNtCs3mbXwXxPNJN_8devsweep3app7actionsNtNtB4_5state8DevSweep22delete_quarantine_item
FN:229,_RNvMNtNtCs3mbXwXxPNJN_8devsweep3app7actionsNtNtB4_5state8DevSweep22toggle_category_expand
FN:304,_RNvMNtNtCs3mbXwXxPNJN_8devsweep3app7actionsNtNtB4_5state8DevSweep23update_selection_counts
FN:351,_RNvMNtNtCs3mbXwXxPNJN_8devsweep3app7actionsNtNtB4_5state8DevSweep31toggle_quarantine_record_expand
FN:84,_RNvMNtNtCs3mbXwXxPNJN_8devsweep3app7actionsNtNtB4_5state8DevSweep7set_tab
FNDA:0,_RNCNCNCNCNCNvMNtNtCshVE6m5yoyjE_8devsweep3app7actionsNtNtBe_5state8DevSweep10start_scan00000Bg_
FNDA:0,_RNCNCNCNCNCNvMNtNtCshVE6m5yoyjE_8devsweep3app7actionsNtNtBe_5state8DevSweep10start_scan0000s_0Bg_
FNDA:0,_RNCNCNCNCNvMNtNtCshVE6m5yoyjE_8devsweep3app7actionsNtNtBc_5state8DevSweep10start_scan0000Be_
FNDA:0,_RNCNCNCNCNvMNtNtCshVE6m5yoyjE_8devsweep3app7actionsNtNtBc_5state8DevSweep11undo_record0000Be_
FNDA:0,_RNCNCNCNCNvMNtNtCshVE6m5yoyjE_8devsweep3app7actionsNtNtBc_5state8DevSweep15execute_cleanup0000Be_
FNDA:0,_RNCNCNCNCNvMNtNtCshVE6m5yoyjE_8devsweep3app7actionsNtNtBc_5state8DevSweep20clear_all_quarantine0000Be_
FNDA:0,_RNCNCNCNCNvMNtNtCshVE6m5yoyjE_8devsweep3app7actionsNtNtBc_5state8DevSweep22delete_quarantine_item0000Be_
FNDA:0,_RNCNCNCNvMNtNtCshVE6m5yoyjE_8devsweep3app7actionsNtNtBa_5state8DevSweep10start_scan000Bc_
FNDA:0,_RNCNCNCNvMNtNtCshVE6m5yoyjE_8devsweep3app7actionsNtNtBa_5state8DevSweep11undo_record000Bc_
FNDA:0,_RNCNCNCNvMNtNtCshVE6m5yoyjE_8devsweep3app7actionsNtNtBa_5state8DevSweep15execute_cleanup000Bc_
FNDA:0,_RNCNCNCNvMNtNtCshVE6m5yoyjE_8devsweep3app7actionsNtNtBa_5state8DevSweep20clear_all_quarantine000Bc_
FNDA:0,_RNCNCNCNvMNtNtCshVE6m5yoyjE_8devsweep3app7actionsNtNtBa_5state8DevSweep22delete_quarantine_item000Bc_
FNDA:0,_RNCNCNvMNtNtCshVE6m5yoyjE_8devsweep3app7actionsNtNtB8_5state8DevSweep10start_scan00Ba_
FNDA:0,_RNCNCNvMNtNtCshVE6m5yoyjE_8devsweep3app7actionsNtNtB8_5state8DevSweep11toggle_item00Ba_
FNDA:0,_RNCNCNvMNtNtCshVE6m5yoyjE_8devsweep3app7actionsNtNtB8_5state8DevSweep11toggle_items1_00Ba_
FNDA:0,_RNCNCNvMNtNtCshVE6m5yoyjE_8devsweep3app7actionsNtNtB8_5state8DevSweep11undo_record00Ba_
FNDA:0,_RNCNCNvMNtNtCshVE6m5yoyjE_8devsweep3app7actionsNtNtB8_5state8DevSweep15execute_cleanup00Ba_
FNDA:0,_RNCNCNvMNtNtCshVE6m5yoyjE_8devsweep3app7actionsNtNtB8_5state8DevSweep15toggle_categorys_00Ba_
FNDA:0,_RNCNCNvMNtNtCshVE6m5yoyjE_8devsweep3app7actionsNtNtB8_5state8DevSweep18refresh_quarantine00Ba_
FNDA:0,_RNCNCNvMNtNtCshVE6m5yoyjE_8devsweep3app7actionsNtNtB8_5state8DevSweep18refresh_quarantine0s_0Ba_
FNDA:0,_RNCNCNvMNtNtCshVE6m5yoyjE_8devsweep3app7actionsNtNtB8_5state8DevSweep18refresh_quarantines_00Ba_
FNDA:0,_RNCNCNvMNtNtCshVE6m5yoyjE_8devsweep3app7actionsNtNtB8_5state8DevSweep20clear_all_quarantine00Ba_
FNDA:0,_RNCNCNvMNtNtCshVE6m5yoyjE_8devsweep3app7actionsNtNtB8_5state8DevSweep22delete_quarantine_item00Ba_
FNDA:0,_RNCNvMNtNtCshVE6m5yoyjE_8devsweep3app7actionsNtNtB6_5state8DevSweep10start_scan0B8_
FNDA:0,_RNCNvMNtNtCshVE6m5yoyjE_8devsweep3app7actionsNtNtB6_5state8DevSweep11toggle_item0B8_
FNDA:0,_RNCNvMNtNtCshVE6m5yoyjE_8devsweep3app7actionsNtNtB6_5state8DevSweep11toggle_items0_0B8_
FNDA:0,_RNCNvMNtNtCshVE6m5yoyjE_8devsweep3app7actionsNtNtB6_5state8DevSweep11toggle_items1_0B8_
FNDA:0,_RNCNvMNtNtCshVE6m5yoyjE_8devsweep3app7actionsNtNtB6_5state8DevSweep11toggle_items_0B8_
FNDA:0,_RNCNvMNtNtCshVE6m5yoyjE_8devsweep3app7actionsNtNtB6_5state8DevSweep11undo_record0B8_
FNDA:0,_RNCNvMNtNtCshVE6m5yoyjE_8devsweep3app7actionsNtNtB6_5state8DevSweep15execute_cleanup0B8_
FNDA:0,_RNCNvMNtNtCshVE6m5yoyjE_8devsweep3app7actionsNtNtB6_5state8DevSweep15toggle_category0B8_
FNDA:0,_RNCNvMNtNtCshVE6m5yoyjE_8devsweep3app7actionsNtNtB6_5state8DevSweep15toggle_categorys_0B8_
FNDA:0,_RNCNvMNtNtCshVE6m5yoyjE_8devsweep3app7actionsNtNtB6_5state8DevSweep18refresh_cache_ttls0B8_
FNDA:0,_RNCNvMNtNtCshVE6m5yoyjE_8devsweep3app7actionsNtNtB6_5state8DevSweep18refresh_cache_ttlss_0B8_
FNDA:0,_RNCNvMNtNtCshVE6m5yoyjE_8devsweep3app7actionsNtNtB6_5state8DevSweep18refresh_quarantine0B8_
FNDA:0,_RNCNvMNtNtCshVE6m5yoyjE_8devsweep3app7actionsNtNtB6_5state8DevSweep18refresh_quarantines_0B8_
FNDA:0,_RNCNvMNtNtCshVE6m5yoyjE_8devsweep3app7actionsNtNtB6_5state8DevSweep20clear_all_quarantine0B8_
FNDA:0,_RNCNvMNtNtCshVE6m5yoyjE_8devsweep3app7actionsNtNtB6_5state8DevSweep22delete_quarantine_item0B8_
FNDA:0,_RNvMNtNtCshVE6m5yoyjE_8devsweep3app7actionsNtNtB4_5state8DevSweep10select_all
FNDA:0,_RNvMNtNtCshVE6m5yoyjE_8devsweep3app7actionsNtNtB4_5state8DevSweep10start_scan
FNDA:0,_RNvMNtNtCshVE6m5yoyjE_8devsweep3app7actionsNtNtB4_5state8DevSweep11toggle_item
FNDA:0,_RNvMNtNtCshVE6m5yoyjE_8devsweep3app7actionsNtNtB4_5state8DevSweep11undo_record
FNDA:0,_RNvMNtNtCshVE6m5yoyjE_8devsweep3app7actionsNtNtB4_5state8DevSweep12deselect_all
FNDA:0,_RNvMNtNtCshVE6m5yoyjE_8devsweep3app7actionsNtNtB4_5state8DevSweep15execute_cleanup
FNDA:0,_RNvMNtNtCshVE6m5yoyjE_8devsweep3app7actionsNtNtB4_5state8DevSweep15toggle_category
FNDA:0,_RNvMNtNtCshVE6m5yoyjE_8devsweep3app7actionsNtNtB4_5state8DevSweep18refresh_cache_ttls
FNDA:0,_RNvMNtNtCshVE6m5yoyjE_8devsweep3app7actionsNtNtB4_5state8DevSweep18refresh_quarantine
FNDA:0,_RNvMNtNtCshVE6m5yoyjE_8devsweep3app7actionsNtNtB4_5state8DevSweep20clear_all_quarantine
FNDA:0,_RNvMNtNtCshVE6m5yoyjE_8devsweep3app7actionsNtNtB4_5state8DevSweep20reset_cache_defaults
FNDA:0,_RNvMNtNtCshVE6m5yoyjE_8devsweep3app7actionsNtNtB4_5state8DevSweep22delete_quarantine_item
FNDA:0,_RNvMNtNtCshVE6m5yoyjE_8devsweep3app7actionsNtNtB4_5state8DevSweep22toggle_category_expand
FNDA:0,_RNvMNtNtCshVE6m5yoyjE_8devsweep3app7actionsNtNtB4_5state8DevSweep23update_selection_counts
FNDA:0,_RNvMNtNtCshVE6m5yoyjE_8devsweep3app7actionsNtNtB4_5state8DevSweep31toggle_quarantine_record_expand
FNDA:0,_RNvMNtNtCshVE6m5yoyjE_8devsweep3app7actionsNtNtB4_5state8DevSweep7set_tab
FNDA:0,_RNCNCNCNCNCNvMNtNtCs3mbXwXxPNJN_8devsweep3app7actionsNtNtBe_5state8DevSweep10start_scan00000Bg_
FNDA:0,_RNCNCNCNCNCNvMNtNtCs3mbXwXxPNJN_8devsweep3app7actionsNtNtBe_5state8DevSweep10start_scan0000s_0Bg_
FNDA:0,_RNCNCNCNCNvMNtNtCs3mbXwXxPNJN_8devsweep3app7actionsNtNtBc_5state8DevSweep10start_scan0000Be_
FNDA:0,_RNCNCNCNCNvMNtNtCs3mbXwXxPNJN_8devsweep3app7actionsNtNtBc_5state8DevSweep11undo_record0000Be_
FNDA:0,_RNCNCNCNCNvMNtNtCs3mbXwXxPNJN_8devsweep3app7actionsNtNtBc_5state8DevSweep15execute_cleanup0000Be_
FNDA:0,_RNCNCNCNCNvMNtNtCs3mbXwXxPNJN_8devsweep3app7actionsNtNtBc_5state8DevSweep20clear_all_quarantine0000Be_
FNDA:0,_RNCNCNCNCNvMNtNtCs3mbXwXxPNJN_8devsweep3app7actionsNtNtBc_5state8DevSweep22delete_quarantine_item0000Be_
FNDA:0,_RNCNCNCNvMNtNtCs3mbXwXxPNJN_8devsweep3app7actionsNtNtBa_5state8DevSweep10start_scan000Bc_
FNDA:0,_RNCNCNCNvMNtNtCs3mbXwXxPNJN_8devsweep3app7actionsNtNtBa_5state8DevSweep11undo_record000Bc_
FNDA:0,_RNCNCNCNvMNtNtCs3mbXwXxPNJN_8devsweep3app7actionsNtNtBa_5state8DevSweep15execute_cleanup000Bc_
FNDA:0,_RNCNCNCNvMNtNtCs3mbXwXxPNJN_8devsweep3app7actionsNtNtBa_5state8DevSweep20clear_all_quarantine000Bc_
FNDA:0,_RNCNCNCNvMNtNtCs3mbXwXxPNJN_8devsweep3app7actionsNtNtBa_5state8DevSweep22delete_quarantine_item000Bc_
FNDA:0,_RNCNCNvMNtNtCs3mbXwXxPNJN_8devsweep3app7actionsNtNtB8_5state8DevSweep10start_scan00Ba_
FNDA:0,_RNCNCNvMNtNtCs3mbXwXxPNJN_8devsweep3app7actionsNtNtB8_5state8DevSweep11toggle_item00Ba_
FNDA:0,_RNCNCNvMNtNtCs3mbXwXxPNJN_8devsweep3app7actionsNtNtB8_5state8DevSweep11toggle_items1_00Ba_
FNDA:0,_RNCNCNvMNtNtCs3mbXwXxPNJN_8devsweep3app7actionsNtNtB8_5state8DevSweep11undo_record00Ba_
FNDA:0,_RNCNCNvMNtNtCs3mbXwXxPNJN_8devsweep3app7actionsNtNtB8_5state8DevSweep15execute_cleanup00Ba_
FNDA:0,_RNCNCNvMNtNtCs3mbXwXxPNJN_8devsweep3app7actionsNtNtB8_5state8DevSweep15toggle_categorys_00Ba_
FNDA:0,_RNCNCNvMNtNtCs3mbXwXxPNJN_8devsweep3app7actionsNtNtB8_5state8DevSweep18refresh_quarantine00Ba_
FNDA:0,_RNCNCNvMNtNtCs3mbXwXxPNJN_8devsweep3app7actionsNtNtB8_5state8DevSweep18refresh_quarantine0s_0Ba_
FNDA:0,_RNCNCNvMNtNtCs3mbXwXxPNJN_8devsweep3app7actionsNtNtB8_5state8DevSweep18refresh_quarantines_00Ba_
FNDA:0,_RNCNCNvMNtNtCs3mbXwXxPNJN_8devsweep3app7actionsNtNtB8_5state8DevSweep20clear_all_quarantine00Ba_
FNDA:0,_RNCNCNvMNtNtCs3mbXwXxPNJN_8devsweep3app7actionsNtNtB8_5state8DevSweep22delete_quarantine_item00Ba_
FNDA:0,_RNCNvMNtNtCs3mbXwXxPNJN_8devsweep3app7actionsNtNtB6_5state8DevSweep10start_scan0B8_
FNDA:0,_RNCNvMNtNtCs3mbXwXxPNJN_8devsweep3app7actionsNtNtB6_5state8DevSweep11toggle_item0B8_
FNDA:0,_RNCNvMNtNtCs3mbXwXxPNJN_8devsweep3app7actionsNtNtB6_5state8DevSweep11toggle_items0_0B8_
FNDA:0,_RNCNvMNtNtCs3mbXwXxPNJN_8devsweep3app7actionsNtNtB6_5state8DevSweep11toggle_items1_0B8_
FNDA:0,_RNCNvMNtNtCs3mbXwXxPNJN_8devsweep3app7actionsNtNtB6_5state8DevSweep11toggle_items_0B8_
FNDA:0,_RNCNvMNtNtCs3mbXwXxPNJN_8devsweep3app7actionsNtNtB6_5state8DevSweep11undo_record0B8_
FNDA:0,_RNCNvMNtNtCs3mbXwXxPNJN_8devsweep3app7actionsNtNtB6_5state8DevSweep15execute_cleanup0B8_
FNDA:0,_RNCNvMNtNtCs3mbXwXxPNJN_8devsweep3app7actionsNtNtB6_5state8DevSweep15toggle_category0B8_
FNDA:0,_RNCNvMNtNtCs3mbXwXxPNJN_8devsweep3app7actionsNtNtB6_5state8DevSweep15toggle_categorys_0B8_
FNDA:0,_RNCNvMNtNtCs3mbXwXxPNJN_8devsweep3app7actionsNtNtB6_5state8DevSweep18refresh_cache_ttls0B8_
FNDA:0,_RNCNvMNtNtCs3mbXwXxPNJN_8devsweep3app7actionsNtNtB6_5state8DevSweep18refresh_cache_ttlss_0B8_
FNDA:0,_RNCNvMNtNtCs3mbXwXxPNJN_8devsweep3app7actionsNtNtB6_5state8DevSweep18refresh_quarantine0B8_
FNDA:0,_RNCNvMNtNtCs3mbXwXxPNJN_8devsweep3app7actionsNtNtB6_5state8DevSweep18refresh_quarantines_0B8_
FNDA:0,_RNCNvMNtNtCs3mbXwXxPNJN_8devsweep3app7actionsNtNtB6_5state8DevSweep20clear_all_quarantine0B8_
FNDA:0,_RNCNvMNtNtCs3mbXwXxPNJN_8devsweep3app7actionsNtNtB6_5state8DevSweep22delete_quarantine_item0B8_
FNDA:0,_RNvMNtNtCs3mbXwXxPNJN_8devsweep3app7actionsNtNtB4_5state8DevSweep10select_all
FNDA:0,_RNvMNtNtCs3mbXwXxPNJN_8devsweep3app7actionsNtNtB4_5state8DevSweep10start_scan
FNDA:0,_RNvMNtNtCs3mbXwXxPNJN_8devsweep3app7actionsNtNtB4_5state8DevSweep11toggle_item
FNDA:0,_RNvMNtNtCs3mbXwXxPNJN_8devsweep3app7actionsNtNtB4_5state8DevSweep11undo_record
FNDA:0,_RNvMNtNtCs3mbXwXxPNJN_8devsweep3app7actionsNtNtB4_5state8DevSweep12deselect_all
FNDA:0,_RNvMNtNtCs3mbXwXxPNJN_8devsweep3app7actionsNtNtB4_5state8DevSweep15execute_cleanup
FNDA:0,_RNvMNtNtCs3mbXwXxPNJN_8devsweep3app7actionsNtNtB4_5state8DevSweep15toggle_category
FNDA:0,_RNvMNtNtCs3mbXwXxPNJN_8devsweep3app7actionsNtNtB4_5state8DevSweep18refresh_cache_ttls
FNDA:0,_RNvMNtNtCs3mbXwXxPNJN_8devsweep3app7actionsNtNtB4_5state8DevSweep18refresh_quarantine
FNDA:0,_RNvMNtNtCs3mbXwXxPNJN_8devsweep3app7actionsNtNtB4_5state8DevSweep20clear_all_quarantine
FNDA:0,_RNvMNtNtCs3mbXwXxPNJN_8devsweep3app7actionsNtNtB4_5state8DevSweep20reset_cache_defaults
FNDA:0,_RNvMNtNtCs3mbXwXxPNJN_8devsweep3app7actionsNtNtB4_5state8DevSweep22delete_quarantine_item
FNDA:0,_RNvMNtNtCs3mbXwXxPNJN_8devsweep3app7actionsNtNtB4_5state8DevSweep22toggle_category_expand
FNDA:0,_RNvMNtNtCs3mbXwXxPNJN_8devsweep3app7actionsNtNtB4_5state8DevSweep23update_selection_counts
FNDA:0,_RNvMNtNtCs3mbXwXxPNJN_8devsweep3app7actionsNtNtB4_5state8DevSweep31toggle_quarantine_record_expand
FNDA:0,_RNvMNtNtCs3mbXwXxPNJN_8devsweep3app7actionsNtNtB4_5state8DevSweep7set_tab
FNF:54
FNH:0
DA:10,0
DA:11,0
DA:12,0
DA:14,0
DA:15,0
DA:16,0
DA:18,0
DA:19,0
DA:20,0
DA:21,0
DA:22,0
DA:23,0
DA:24,0
DA:25,0
DA:27,0
DA:28,0
DA:29,0
DA:31,0
DA:32,0
DA:33,0
DA:34,0
DA:35,0
DA:36,0
DA:37,0
DA:38,0
DA:39,0
DA:40,0
DA:41,0
DA:42,0
DA:45,0
DA:46,0
DA:47,0
DA:48,0
DA:49,0
DA:50,0
DA:51,0
DA:52,0
DA:53,0
DA:54,0
DA:55,0
DA:56,0
DA:57,0
DA:58,0
DA:59,0
DA:60,0
DA:61,0
DA:62,0
DA:63,0
DA:64,0
DA:66,0
DA:67,0
DA:68,0
DA:69,0
DA:71,0
DA:72,0
DA:73,0
DA:74,0
DA:75,0
DA:76,0
DA:77,0
DA:78,0
DA:79,0
DA:80,0
DA:81,0
DA:82,0
DA:84,0
DA:85,0
DA:86,0
DA:87,0
DA:88,0
DA:89,0
DA:90,0
DA:91,0
DA:93,0
DA:95,0
DA:96,0
DA:97,0
DA:99,0
DA:100,0
DA:101,0
DA:103,0
DA:105,0
DA:106,0
DA:107,0
DA:110,0
DA:112,0
DA:114,0
DA:116,0
DA:117,0
DA:118,0
DA:119,0
DA:120,0
DA:123,0
DA:124,0
DA:127,0
DA:128,0
DA:129,0
DA:132,0
DA:133,0
DA:134,0
DA:135,0
DA:136,0
DA:137,0
DA:138,0
DA:141,0
DA:142,0
DA:144,0
DA:145,0
DA:146,0
DA:147,0
DA:148,0
DA:149,0
DA:150,0
DA:151,0
DA:152,0
DA:154,0
DA:155,0
DA:156,0
DA:157,0
DA:158,0
DA:159,0
DA:160,0
DA:161,0
DA:162,0
DA:163,0
DA:164,0
DA:168,0
DA:169,0
DA:171,0
DA:172,0
DA:173,0
DA:174,0
DA:175,0
DA:176,0
DA:177,0
DA:179,0
DA:180,0
DA:181,0
DA:182,0
DA:183,0
DA:184,0
DA:185,0
DA:187,0
DA:188,0
DA:189,0
DA:190,0
DA:192,0
DA:193,0
DA:196,0
DA:197,0
DA:199,0
DA:200,0
DA:201,0
DA:202,0
DA:203,0
DA:204,0
DA:205,0
DA:206,0
DA:210,0
DA:211,0
DA:212,0
DA:213,0
DA:214,0
DA:215,0
DA:219,0
DA:220,0
DA:221,0
DA:222,0
DA:224,0
DA:226,0
DA:227,0
DA:229,0
DA:230,0
DA:231,0
DA:232,0
DA:233,0
DA:235,0
DA:236,0
DA:237,0
DA:238,0
DA:240,0
DA:241,0
DA:242,0
DA:243,0
DA:244,0
DA:245,0
DA:248,0
DA:249,0
DA:250,0
DA:251,0
DA:252,0
DA:253,0
DA:254,0
DA:255,0
DA:256,0
DA:257,0
DA:258,0
DA:259,0
DA:261,0
DA:262,0
DA:263,0
DA:265,0
DA:268,0
DA:269,0
DA:270,0
DA:271,0
DA:272,0
DA:273,0
DA:274,0
DA:276,0
DA:277,0
DA:279,0
DA:280,0
DA:281,0
DA:282,0
DA:283,0
DA:284,0
DA:285,0
DA:286,0
DA:287,0
DA:288,0
DA:289,0
DA:290,0
DA:291,0
DA:293,0
DA:294,0
DA:295,0
DA:296,0
DA:297,0
DA:298,0
DA:299,0
DA:300,0
DA:301,0
DA:302,0
DA:304,0
DA:305,0
DA:306,0
DA:307,0
DA:308,0
DA:310,0
DA:311,0
DA:312,0
DA:313,0
DA:314,0
DA:315,0
DA:317,0
DA:318,0
DA:319,0
DA:321,0
DA:322,0
DA:324,0
DA:325,0
DA:326,0
DA:327,0
DA:330,0
DA:331,0
DA:332,0
DA:334,0
DA:335,0
DA:336,0
DA:337,0
DA:338,0
DA:339,0
DA:340,0
DA:344,0
DA:345,0
DA:346,0
DA:347,0
DA:348,0
DA:349,0
DA:351,0
DA:352,0
DA:353,0
DA:354,0
DA:355,0
DA:357,0
DA:358,0
DA:359,0
DA:360,0
DA:362,0
DA:364,0
DA:365,0
DA:366,0
DA:367,0
DA:370,0
DA:371,0
DA:372,0
DA:374,0
DA:375,0
DA:376,0
DA:377,0
DA:378,0
DA:379,0
DA:380,0
DA:383,0
DA:384,0
DA:385,0
DA:386,0
DA:387,0
DA:388,0
DA:389,0
DA:390,0
DA:392,0
DA:393,0
DA:394,0
DA:395,0
DA:396,0
DA:397,0
DA:398,0
DA:399,0
DA:400,0
DA:402,0
DA:404,0
DA:405,0
DA:406,0
DA:407,0
DA:410,0
DA:411,0
DA:412,0
DA:414,0
DA:415,0
DA:416,0
DA:417,0
DA:418,0
DA:419,0
DA:420,0
DA:423,0
DA:424,0
DA:425,0
DA:426,0
DA:427,0
DA:428,0
DA:429,0
DA:430,0
DA:432,0
DA:433,0
DA:434,0
DA:435,0
DA:437,0
DA:439,0
DA:440,0
DA:441,0
DA:442,0
DA:445,0
DA:446,0
DA:447,0
DA:449,0
DA:450,0
DA:451,0
DA:452,0
DA:453,0
DA:454,0
DA:455,0
DA:458,0
DA:459,0
DA:460,0
DA:461,0
DA:462,0
DA:463,0
DA:464,0
DA:465,0
DA:467,0
DA:468,0
DA:469,0
DA:470,0
DA:471,0
DA:472,0
BRF:0
BRH:0
LF:404
LH:0
end_of_record
SF:/Users/canggih/Documents/Kedata/cleanstorage/dev-cleaner/src/app/render.rs
FN:186,_RNCNvMs_NtNtCshVE6m5yoyjE_8devsweep3app6renderNtNtB8_5state8DevSweep12sidebar_item0Ba_
FN:194,_RNCNvMs_NtNtCshVE6m5yoyjE_8devsweep3app6renderNtNtB8_5state8DevSweep12sidebar_items0_0Ba_
FN:193,_RNCNvMs_NtNtCshVE6m5yoyjE_8devsweep3app6renderNtNtB8_5state8DevSweep12sidebar_items_0Ba_
FN:114,_RNCNvMs_NtNtCshVE6m5yoyjE_8devsweep3app6renderNtNtB8_5state8DevSweep14render_sidebar0Ba_
FN:116,_RNCNvMs_NtNtCshVE6m5yoyjE_8devsweep3app6renderNtNtB8_5state8DevSweep14render_sidebars0_0Ba_
FN:115,_RNCNvMs_NtNtCshVE6m5yoyjE_8devsweep3app6renderNtNtB8_5state8DevSweep14render_sidebars_0Ba_
FN:165,_RNvMs_NtNtCshVE6m5yoyjE_8devsweep3app6renderNtNtB6_5state8DevSweep12sidebar_item
FN:35,_RNvMs_NtNtCshVE6m5yoyjE_8devsweep3app6renderNtNtB6_5state8DevSweep14render_sidebar
FN:8,_RNvXNtNtCshVE6m5yoyjE_8devsweep3app6renderNtNtB4_5state8DevSweepNtNtCs7iYqt2tyMRL_4gpui7element6Render6render
FN:186,_RNCNvMs_NtNtCs3mbXwXxPNJN_8devsweep3app6renderNtNtB8_5state8DevSweep12sidebar_item0Ba_
FN:194,_RNCNvMs_NtNtCs3mbXwXxPNJN_8devsweep3app6renderNtNtB8_5state8DevSweep12sidebar_items0_0Ba_
FN:193,_RNCNvMs_NtNtCs3mbXwXxPNJN_8devsweep3app6renderNtNtB8_5state8DevSweep12sidebar_items_0Ba_
FN:114,_RNCNvMs_NtNtCs3mbXwXxPNJN_8devsweep3app6renderNtNtB8_5state8DevSweep14render_sidebar0Ba_
FN:116,_RNCNvMs_NtNtCs3mbXwXxPNJN_8devsweep3app6renderNtNtB8_5state8DevSweep14render_sidebars0_0Ba_
FN:115,_RNCNvMs_NtNtCs3mbXwXxPNJN_8devsweep3app6renderNtNtB8_5state8DevSweep14render_sidebars_0Ba_
FN:165,_RNvMs_NtNtCs3mbXwXxPNJN_8devsweep3app6renderNtNtB6_5state8DevSweep12sidebar_item
FN:35,_RNvMs_NtNtCs3mbXwXxPNJN_8devsweep3app6renderNtNtB6_5state8DevSweep14render_sidebar
FN:8,_RNvXNtNtCs3mbXwXxPNJN_8devsweep3app6renderNtNtB4_5state8DevSweepNtNtCs7iYqt2tyMRL_4gpui7element6Render6render
FNDA:0,_RNCNvMs_NtNtCshVE6m5yoyjE_8devsweep3app6renderNtNtB8_5state8DevSweep12sidebar_item0Ba_
FNDA:0,_RNCNvMs_NtNtCshVE6m5yoyjE_8devsweep3app6renderNtNtB8_5state8DevSweep12sidebar_items0_0Ba_
FNDA:0,_RNCNvMs_NtNtCshVE6m5yoyjE_8devsweep3app6renderNtNtB8_5state8DevSweep12sidebar_items_0Ba_
FNDA:0,_RNCNvMs_NtNtCshVE6m5yoyjE_8devsweep3app6renderNtNtB8_5state8DevSweep14render_sidebar0Ba_
FNDA:0,_RNCNvMs_NtNtCshVE6m5yoyjE_8devsweep3app6renderNtNtB8_5state8DevSweep14render_sidebars0_0Ba_
FNDA:0,_RNCNvMs_NtNtCshVE6m5yoyjE_8devsweep3app6renderNtNtB8_5state8DevSweep14render_sidebars_0Ba_
FNDA:0,_RNvMs_NtNtCshVE6m5yoyjE_8devsweep3app6renderNtNtB6_5state8DevSweep12sidebar_item
FNDA:0,_RNvMs_NtNtCshVE6m5yoyjE_8devsweep3app6renderNtNtB6_5state8DevSweep14render_sidebar
FNDA:0,_RNvXNtNtCshVE6m5yoyjE_8devsweep3app6renderNtNtB4_5state8DevSweepNtNtCs7iYqt2tyMRL_4gpui7element6Render6render
FNDA:0,_RNCNvMs_NtNtCs3mbXwXxPNJN_8devsweep3app6renderNtNtB8_5state8DevSweep12sidebar_item0Ba_
FNDA:0,_RNCNvMs_NtNtCs3mbXwXxPNJN_8devsweep3app6renderNtNtB8_5state8DevSweep12sidebar_items0_0Ba_
FNDA:0,_RNCNvMs_NtNtCs3mbXwXxPNJN_8devsweep3app6renderNtNtB8_5state8DevSweep12sidebar_items_0Ba_
FNDA:0,_RNCNvMs_NtNtCs3mbXwXxPNJN_8devsweep3app6renderNtNtB8_5state8DevSweep14render_sidebar0Ba_
FNDA:0,_RNCNvMs_NtNtCs3mbXwXxPNJN_8devsweep3app6renderNtNtB8_5state8DevSweep14render_sidebars0_0Ba_
FNDA:0,_RNCNvMs_NtNtCs3mbXwXxPNJN_8devsweep3app6renderNtNtB8_5state8DevSweep14render_sidebars_0Ba_
FNDA:0,_RNvMs_NtNtCs3mbXwXxPNJN_8devsweep3app6renderNtNtB6_5state8DevSweep12sidebar_item
FNDA:0,_RNvMs_NtNtCs3mbXwXxPNJN_8devsweep3app6renderNtNtB6_5state8DevSweep14render_sidebar
FNDA:0,_RNvXNtNtCs3mbXwXxPNJN_8devsweep3app6renderNtNtB4_5state8DevSweepNtNtCs7iYqt2tyMRL_4gpui7element6Render6render
FNF:9
FNH:0
DA:8,0
DA:9,0
DA:11,0
DA:12,0
DA:13,0
DA:14,0
DA:15,0
DA:17,0
DA:19,0
DA:20,0
DA:21,0
DA:22,0
DA:23,0
DA:24,0
DA:25,0
DA:26,0
DA:27,0
DA:28,0
DA:31,0
DA:35,0
DA:36,0
DA:37,0
DA:39,0
DA:40,0
DA:41,0
DA:42,0
DA:43,0
DA:44,0
DA:45,0
DA:46,0
DA:48,0
DA:49,0
DA:50,0
DA:51,0
DA:52,0
DA:53,0
DA:54,0
DA:55,0
DA:56,0
DA:57,0
DA:58,0
DA:59,0
DA:60,0
DA:61,0
DA:62,0
DA:63,0
DA:64,0
DA:66,0
DA:69,0
DA:70,0
DA:71,0
DA:72,0
DA:73,0
DA:74,0
DA:78,0
DA:79,0
DA:80,0
DA:81,0
DA:82,0
DA:83,0
DA:84,0
DA:85,0
DA:86,0
DA:87,0
DA:88,0
DA:89,0
DA:92,0
DA:93,0
DA:94,0
DA:95,0
DA:96,0
DA:97,0
DA:98,0
DA:99,0
DA:100,0
DA:102,0
DA:103,0
DA:104,0
DA:105,0
DA:106,0
DA:107,0
DA:108,0
DA:109,0
DA:110,0
DA:111,0
DA:112,0
DA:113,0
DA:114,0
DA:115,0
DA:116,0
DA:117,0
DA:118,0
DA:119,0
DA:120,0
DA:121,0
DA:122,0
DA:123,0
DA:124,0
DA:125,0
DA:126,0
DA:128,0
DA:130,0
DA:131,0
DA:132,0
DA:133,0
DA:134,0
DA:135,0
DA:137,0
DA:143,0
DA:144,0
DA:145,0
DA:146,0
DA:147,0
DA:148,0
DA:149,0
DA:150,0
DA:151,0
DA:152,0
DA:154,0
DA:155,0
DA:156,0
DA:157,0
DA:158,0
DA:159,0
DA:163,0
DA:165,0
DA:166,0
DA:167,0
DA:168,0
DA:169,0
DA:170,0
DA:171,0
DA:172,0
DA:173,0
DA:174,0
DA:175,0
DA:176,0
DA:177,0
DA:178,0
DA:179,0
DA:180,0
DA:181,0
DA:182,0
DA:184,0
DA:186,0
DA:187,0
DA:188,0
DA:190,0
DA:192,0
DA:193,0
DA:194,0
DA:195,0
DA:196,0
DA:197,0
DA:198,0
DA:199,0
DA:200,0
DA:201,0
DA:202,0
DA:203,0
DA:205,0
DA:207,0
DA:208,0
DA:210,0
DA:212,0
DA:214,0
BRF:0
BRH:0
LF:172
LH:0
end_of_record
SF:/Users/canggih/Documents/Kedata/cleanstorage/dev-cleaner/src/app/state.rs
FN:108,_RNCNvMs_NtNtCshVE6m5yoyjE_8devsweep3app5stateNtB6_8DevSweep3new0Ba_
FN:112,_RNCNvMs_NtNtCshVE6m5yoyjE_8devsweep3app5stateNtB6_8DevSweep3news_0Ba_
FN:144,_RNvMs_NtNtCshVE6m5yoyjE_8devsweep3app5stateNtB4_8DevSweep19update_storage_info
FN:100,_RNvMs_NtNtCshVE6m5yoyjE_8devsweep3app5stateNtB4_8DevSweep3new
FN:94,_RNvXNtNtCshVE6m5yoyjE_8devsweep3app5stateNtB2_8DevSweepNtNtCskzPJi2J8k3N_4core7default7Default7default
FN:108,_RNCNvMs_NtNtCs3mbXwXxPNJN_8devsweep3app5stateNtB6_8DevSweep3new0Ba_
FN:112,_RNCNvMs_NtNtCs3mbXwXxPNJN_8devsweep3app5stateNtB6_8DevSweep3news_0Ba_
FN:144,_RNvMs_NtNtCs3mbXwXxPNJN_8devsweep3app5stateNtB4_8DevSweep19update_storage_info
FN:100,_RNvMs_NtNtCs3mbXwXxPNJN_8devsweep3app5stateNtB4_8DevSweep3new
FN:94,_RNvXNtNtCs3mbXwXxPNJN_8devsweep3app5stateNtB2_8DevSweepNtNtCskzPJi2J8k3N_4core7default7Default7default
FNDA:0,_RNCNvMs_NtNtCshVE6m5yoyjE_8devsweep3app5stateNtB6_8DevSweep3new0Ba_
FNDA:0,_RNCNvMs_NtNtCshVE6m5yoyjE_8devsweep3app5stateNtB6_8DevSweep3news_0Ba_
FNDA:0,_RNvMs_NtNtCshVE6m5yoyjE_8devsweep3app5stateNtB4_8DevSweep19update_storage_info
FNDA:0,_RNvMs_NtNtCshVE6m5yoyjE_8devsweep3app5stateNtB4_8DevSweep3new
FNDA:0,_RNvXNtNtCshVE6m5yoyjE_8devsweep3app5stateNtB2_8DevSweepNtNtCskzPJi2J8k3N_4core7default7Default7default
FNDA:0,_RNCNvMs_NtNtCs3mbXwXxPNJN_8devsweep3app5stateNtB6_8DevSweep3new0Ba_
FNDA:0,_RNCNvMs_NtNtCs3mbXwXxPNJN_8devsweep3app5stateNtB6_8DevSweep3news_0Ba_
FNDA:0,_RNvMs_NtNtCs3mbXwXxPNJN_8devsweep3app5stateNtB4_8DevSweep19update_storage_info
FNDA:0,_RNvMs_NtNtCs3mbXwXxPNJN_8devsweep3app5stateNtB4_8DevSweep3new
FNDA:0,_RNvXNtNtCs3mbXwXxPNJN_8devsweep3app5stateNtB2_8DevSweepNtNtCskzPJi2J8k3N_4core7default7Default7default
FNF:5
FNH:0
DA:94,0
DA:95,0
DA:96,0
DA:100,0
DA:101,0
DA:104,0
DA:105,0
DA:106,0
DA:107,0
DA:108,0
DA:109,0
DA:110,0
DA:111,0
DA:112,0
DA:115,0
DA:116,0
DA:118,0
DA:121,0
DA:122,0
DA:123,0
DA:124,0
DA:125,0
DA:126,0
DA:127,0
DA:128,0
DA:129,0
DA:130,0
DA:131,0
DA:132,0
DA:133,0
DA:134,0
DA:135,0
DA:136,0
DA:137,0
DA:138,0
DA:139,0
DA:140,0
DA:141,0
DA:142,0
DA:144,0
DA:145,0
DA:146,0
DA:147,0
DA:148,0
BRF:0
BRH:0
LF:45
LH:0
end_of_record
SF:/Users/canggih/Documents/Kedata/cleanstorage/dev-cleaner/src/app/tabs/about_tab.rs
FN:118,_RNvMNtNtNtCshVE6m5yoyjE_8devsweep3app4tabs9about_tabNtNtB6_5state8DevSweep10tech_badge
FN:104,_RNvMNtNtNtCshVE6m5yoyjE_8devsweep3app4tabs9about_tabNtNtB6_5state8DevSweep12feature_item
FN:7,_RNvMNtNtNtCshVE6m5yoyjE_8devsweep3app4tabs9about_tabNtNtB6_5state8DevSweep16render_about_tab
FN:118,_RNvMNtNtNtCs3mbXwXxPNJN_8devsweep3app4tabs9about_tabNtNtB6_5state8DevSweep10tech_badge
FN:104,_RNvMNtNtNtCs3mbXwXxPNJN_8devsweep3app4tabs9about_tabNtNtB6_5state8DevSweep12feature_item
FN:7,_RNvMNtNtNtCs3mbXwXxPNJN_8devsweep3app4tabs9about_tabNtNtB6_5state8DevSweep16render_about_tab
FNDA:0,_RNvMNtNtNtCshVE6m5yoyjE_8devsweep3app4tabs9about_tabNtNtB6_5state8DevSweep10tech_badge
FNDA:0,_RNvMNtNtNtCshVE6m5yoyjE_8devsweep3app4tabs9about_tabNtNtB6_5state8DevSweep12feature_item
FNDA:0,_RNvMNtNtNtCshVE6m5yoyjE_8devsweep3app4tabs9about_tabNtNtB6_5state8DevSweep16render_about_tab
FNDA:0,_RNvMNtNtNtCs3mbXwXxPNJN_8devsweep3app4tabs9about_tabNtNtB6_5state8DevSweep10tech_badge
FNDA:0,_RNvMNtNtNtCs3mbXwXxPNJN_8devsweep3app4tabs9about_tabNtNtB6_5state8DevSweep12feature_item
FNDA:0,_RNvMNtNtNtCs3mbXwXxPNJN_8devsweep3app4tabs9about_tabNtNtB6_5state8DevSweep16render_about_tab
FNF:3
FNH:0
DA:7,0
DA:8,0
DA:9,0
DA:10,0
DA:11,0
DA:12,0
DA:13,0
DA:14,0
DA:15,0
DA:16,0
DA:18,0
DA:19,0
DA:20,0
DA:21,0
DA:22,0
DA:23,0
DA:24,0
DA:25,0
DA:26,0
DA:27,0
DA:28,0
DA:30,0
DA:31,0
DA:32,0
DA:35,0
DA:36,0
DA:37,0
DA:38,0
DA:39,0
DA:40,0
DA:42,0
DA:43,0
DA:44,0
DA:45,0
DA:46,0
DA:50,0
DA:51,0
DA:52,0
DA:53,0
DA:54,0
DA:55,0
DA:59,0
DA:60,0
DA:61,0
DA:62,0
DA:63,0
DA:64,0
DA:65,0
DA:66,0
DA:67,0
DA:68,0
DA:69,0
DA:70,0
DA:71,0
DA:72,0
DA:74,0
DA:75,0
DA:76,0
DA:77,0
DA:78,0
DA:81,0
DA:82,0
DA:83,0
DA:84,0
DA:85,0
DA:86,0
DA:87,0
DA:88,0
DA:89,0
DA:90,0
DA:91,0
DA:93,0
DA:94,0
DA:95,0
DA:96,0
DA:97,0
DA:98,0
DA:99,0
DA:102,0
DA:104,0
DA:105,0
DA:106,0
DA:107,0
DA:108,0
DA:109,0
DA:110,0
DA:111,0
DA:112,0
DA:113,0
DA:114,0
DA:116,0
DA:118,0
DA:119,0
DA:120,0
DA:121,0
DA:122,0
DA:123,0
DA:124,0
DA:125,0
DA:126,0
DA:127,0
DA:128,0
DA:129,0
DA:130,0
DA:131,0
DA:132,0
DA:134,0
BRF:0
BRH:0
LF:107
LH:0
end_of_record
SF:/Users/canggih/Documents/Kedata/cleanstorage/dev-cleaner/src/app/tabs/quarantine_tab.rs
FN:118,_RNCNCNvMNtNtNtCshVE6m5yoyjE_8devsweep3app4tabs14quarantine_tabNtNtBa_5state8DevSweep21render_quarantine_tabs4_00Bc_
FN:124,_RNCNCNvMNtNtNtCshVE6m5yoyjE_8devsweep3app4tabs14quarantine_tabNtNtBa_5state8DevSweep21render_quarantine_tabs4_0s0_0Bc_
FN:119,_RNCNCNvMNtNtNtCshVE6m5yoyjE_8devsweep3app4tabs14quarantine_tabNtNtBa_5state8DevSweep21render_quarantine_tabs4_0s_0Bc_
FN:253,_RNCNCNvMNtNtNtCshVE6m5yoyjE_8devsweep3app4tabs14quarantine_tabNtNtBa_5state8DevSweep21render_quarantine_tabs6_00Bc_
FN:502,_RNCNCNvMNtNtNtCshVE6m5yoyjE_8devsweep3app4tabs14quarantine_tabNtNtBa_5state8DevSweep22render_quarantine_items1_00Bc_
FN:504,_RNCNCNvMNtNtNtCshVE6m5yoyjE_8devsweep3app4tabs14quarantine_tabNtNtBa_5state8DevSweep22render_quarantine_items1_0s0_0Bc_
FN:503,_RNCNCNvMNtNtNtCshVE6m5yoyjE_8devsweep3app4tabs14quarantine_tabNtNtBa_5state8DevSweep22render_quarantine_items1_0s_0Bc_
FN:375,_RNCNCNvMNtNtNtCshVE6m5yoyjE_8devsweep3app4tabs14quarantine_tabNtNtBa_5state8DevSweep24render_quarantine_records2_00Bc_
FN:379,_RNCNCNvMNtNtNtCshVE6m5yoyjE_8devsweep3app4tabs14quarantine_tabNtNtBa_5state8DevSweep24render_quarantine_records2_0s0_0Bc_
FN:376,_RNCNCNvMNtNtNtCshVE6m5yoyjE_8devsweep3app4tabs14quarantine_tabNtNtBa_5state8DevSweep24render_quarantine_records2_0s_0Bc_
FN:403,_RNCNCNvMNtNtNtCshVE6m5yoyjE_8devsweep3app4tabs14quarantine_tabNtNtBa_5state8DevSweep24render_quarantine_records3_00Bc_
FN:64,_RNCNvMNtNtNtCshVE6m5yoyjE_8devsweep3app4tabs14quarantine_tabNtNtB8_5state8DevSweep21render_quarantine_tab0Ba_
FN:68,_RNCNvMNtNtNtCshVE6m5yoyjE_8devsweep3app4tabs14quarantine_tabNtNtB8_5state8DevSweep21render_quarantine_tabs0_0Ba_
FN:87,_RNCNvMNtNtNtCshVE6m5yoyjE_8devsweep3app4tabs14quarantine_tabNtNtB8_5state8DevSweep21render_quarantine_tabs1_0Ba_
FN:88,_RNCNvMNtNtNtCshVE6m5yoyjE_8devsweep3app4tabs14quarantine_tabNtNtB8_5state8DevSweep21render_quarantine_tabs2_0Ba_
FN:91,_RNCNvMNtNtNtCshVE6m5yoyjE_8devsweep3app4tabs14quarantine_tabNtNtB8_5state8DevSweep21render_quarantine_tabs3_0Ba_
FN:109,_RNCNvMNtNtNtCshVE6m5yoyjE_8devsweep3app4tabs14quarantine_tabNtNtB8_5state8DevSweep21render_quarantine_tabs4_0Ba_
FN:136,_RNCNvMNtNtNtCshVE6m5yoyjE_8devsweep3app4tabs14quarantine_tabNtNtB8_5state8DevSweep21render_quarantine_tabs5_0Ba_
FN:250,_RNCNvMNtNtNtCshVE6m5yoyjE_8devsweep3app4tabs14quarantine_tabNtNtB8_5state8DevSweep21render_quarantine_tabs6_0Ba_
FN:65,_RNCNvMNtNtNtCshVE6m5yoyjE_8devsweep3app4tabs14quarantine_tabNtNtB8_5state8DevSweep21render_quarantine_tabs_0Ba_
FN:429,_RNCNvMNtNtNtCshVE6m5yoyjE_8devsweep3app4tabs14quarantine_tabNtNtB8_5state8DevSweep22render_quarantine_item0Ba_
FN:469,_RNCNvMNtNtNtCshVE6m5yoyjE_8devsweep3app4tabs14quarantine_tabNtNtB8_5state8DevSweep22render_quarantine_items0_0Ba_
FN:490,_RNCNvMNtNtNtCshVE6m5yoyjE_8devsweep3app4tabs14quarantine_tabNtNtB8_5state8DevSweep22render_quarantine_items1_0Ba_
FN:460,_RNCNvMNtNtNtCshVE6m5yoyjE_8devsweep3app4tabs14quarantine_tabNtNtB8_5state8DevSweep22render_quarantine_items_0Ba_
FN:298,_RNCNvMNtNtNtCshVE6m5yoyjE_8devsweep3app4tabs14quarantine_tabNtNtB8_5state8DevSweep24render_quarantine_record0Ba_
FN:301,_RNCNvMNtNtNtCshVE6m5yoyjE_8devsweep3app4tabs14quarantine_tabNtNtB8_5state8DevSweep24render_quarantine_records0_0Ba_
FN:335,_RNCNvMNtNtNtCshVE6m5yoyjE_8devsweep3app4tabs14quarantine_tabNtNtB8_5state8DevSweep24render_quarantine_records1_0Ba_
FN:365,_RNCNvMNtNtNtCshVE6m5yoyjE_8devsweep3app4tabs14quarantine_tabNtNtB8_5state8DevSweep24render_quarantine_records2_0Ba_
FN:393,_RNCNvMNtNtNtCshVE6m5yoyjE_8devsweep3app4tabs14quarantine_tabNtNtB8_5state8DevSweep24render_quarantine_records3_0Ba_
FN:299,_RNCNvMNtNtNtCshVE6m5yoyjE_8devsweep3app4tabs14quarantine_tabNtNtB8_5state8DevSweep24render_quarantine_records_0Ba_
FN:7,_RNvMNtNtNtCshVE6m5yoyjE_8devsweep3app4tabs14quarantine_tabNtNtB6_5state8DevSweep21render_quarantine_tab
FN:409,_RNvMNtNtNtCshVE6m5yoyjE_8devsweep3app4tabs14quarantine_tabNtNtB6_5state8DevSweep22render_quarantine_item
FN:269,_RNvMNtNtNtCshVE6m5yoyjE_8devsweep3app4tabs14quarantine_tabNtNtB6_5state8DevSweep24render_quarantine_record
FN:118,_RNCNCNvMNtNtNtCs3mbXwXxPNJN_8devsweep3app4tabs14quarantine_tabNtNtBa_5state8DevSweep21render_quarantine_tabs4_00Bc_
FN:124,_RNCNCNvMNtNtNtCs3mbXwXxPNJN_8devsweep3app4tabs14quarantine_tabNtNtBa_5state8DevSweep21render_quarantine_tabs4_0s0_0Bc_
FN:119,_RNCNCNvMNtNtNtCs3mbXwXxPNJN_8devsweep3app4tabs14quarantine_tabNtNtBa_5state8DevSweep21render_quarantine_tabs4_0s_0Bc_
FN:253,_RNCNCNvMNtNtNtCs3mbXwXxPNJN_8devsweep3app4tabs14quarantine_tabNtNtBa_5state8DevSweep21render_quarantine_tabs6_00Bc_
FN:502,_RNCNCNvMNtNtNtCs3mbXwXxPNJN_8devsweep3app4tabs14quarantine_tabNtNtBa_5state8DevSweep22render_quarantine_items1_00Bc_
FN:504,_RNCNCNvMNtNtNtCs3mbXwXxPNJN_8devsweep3app4tabs14quarantine_tabNtNtBa_5state8DevSweep22render_quarantine_items1_0s0_0Bc_
FN:503,_RNCNCNvMNtNtNtCs3mbXwXxPNJN_8devsweep3app4tabs14quarantine_tabNtNtBa_5state8DevSweep22render_quarantine_items1_0s_0Bc_
FN:375,_RNCNCNvMNtNtNtCs3mbXwXxPNJN_8devsweep3app4tabs14quarantine_tabNtNtBa_5state8DevSweep24render_quarantine_records2_00Bc_
FN:379,_RNCNCNvMNtNtNtCs3mbXwXxPNJN_8devsweep3app4tabs14quarantine_tabNtNtBa_5state8DevSweep24render_quarantine_records2_0s0_0Bc_
FN:376,_RNCNCNvMNtNtNtCs3mbXwXxPNJN_8devsweep3app4tabs14quarantine_tabNtNtBa_5state8DevSweep24render_quarantine_records2_0s_0Bc_
FN:403,_RNCNCNvMNtNtNtCs3mbXwXxPNJN_8devsweep3app4tabs14quarantine_tabNtNtBa_5state8DevSweep24render_quarantine_records3_00Bc_
FN:64,_RNCNvMNtNtNtCs3mbXwXxPNJN_8devsweep3app4tabs14quarantine_tabNtNtB8_5state8DevSweep21render_quarantine_tab0Ba_
FN:68,_RNCNvMNtNtNtCs3mbXwXxPNJN_8devsweep3app4tabs14quarantine_tabNtNtB8_5state8DevSweep21render_quarantine_tabs0_0Ba_
FN:87,_RNCNvMNtNtNtCs3mbXwXxPNJN_8devsweep3app4tabs14quarantine_tabNtNtB8_5state8DevSweep21render_quarantine_tabs1_0Ba_
FN:88,_RNCNvMNtNtNtCs3mbXwXxPNJN_8devsweep3app4tabs14quarantine_tabNtNtB8_5state8DevSweep21render_quarantine_tabs2_0Ba_
FN:91,_RNCNvMNtNtNtCs3mbXwXxPNJN_8devsweep3app4tabs14quarantine_tabNtNtB8_5state8DevSweep21render_quarantine_tabs3_0Ba_
FN:109,_RNCNvMNtNtNtCs3mbXwXxPNJN_8devsweep3app4tabs14quarantine_tabNtNtB8_5state8DevSweep21render_quarantine_tabs4_0Ba_
FN:136,_RNCNvMNtNtNtCs3mbXwXxPNJN_8devsweep3app4tabs14quarantine_tabNtNtB8_5state8DevSweep21render_quarantine_tabs5_0Ba_
FN:250,_RNCNvMNtNtNtCs3mbXwXxPNJN_8devsweep3app4tabs14quarantine_tabNtNtB8_5state8DevSweep21render_quarantine_tabs6_0Ba_
FN:65,_RNCNvMNtNtNtCs3mbXwXxPNJN_8devsweep3app4tabs14quarantine_tabNtNtB8_5state8DevSweep21render_quarantine_tabs_0Ba_
FN:429,_RNCNvMNtNtNtCs3mbXwXxPNJN_8devsweep3app4tabs14quarantine_tabNtNtB8_5state8DevSweep22render_quarantine_item0Ba_
FN:469,_RNCNvMNtNtNtCs3mbXwXxPNJN_8devsweep3app4tabs14quarantine_tabNtNtB8_5state8DevSweep22render_quarantine_items0_0Ba_
FN:490,_RNCNvMNtNtNtCs3mbXwXxPNJN_8devsweep3app4tabs14quarantine_tabNtNtB8_5state8DevSweep22render_quarantine_items1_0Ba_
FN:460,_RNCNvMNtNtNtCs3mbXwXxPNJN_8devsweep3app4tabs14quarantine_tabNtNtB8_5state8DevSweep22render_quarantine_items_0Ba_
FN:298,_RNCNvMNtNtNtCs3mbXwXxPNJN_8devsweep3app4tabs14quarantine_tabNtNtB8_5state8DevSweep24render_quarantine_record0Ba_
FN:301,_RNCNvMNtNtNtCs3mbXwXxPNJN_8devsweep3app4tabs14quarantine_tabNtNtB8_5state8DevSweep24render_quarantine_records0_0Ba_
FN:335,_RNCNvMNtNtNtCs3mbXwXxPNJN_8devsweep3app4tabs14quarantine_tabNtNtB8_5state8DevSweep24render_quarantine_records1_0Ba_
FN:365,_RNCNvMNtNtNtCs3mbXwXxPNJN_8devsweep3app4tabs14quarantine_tabNtNtB8_5state8DevSweep24render_quarantine_records2_0Ba_
FN:393,_RNCNvMNtNtNtCs3mbXwXxPNJN_8devsweep3app4tabs14quarantine_tabNtNtB8_5state8DevSweep24render_quarantine_records3_0Ba_
FN:299,_RNCNvMNtNtNtCs3mbXwXxPNJN_8devsweep3app4tabs14quarantine_tabNtNtB8_5state8DevSweep24render_quarantine_records_0Ba_
FN:7,_RNvMNtNtNtCs3mbXwXxPNJN_8devsweep3app4tabs14quarantine_tabNtNtB6_5state8DevSweep21render_quarantine_tab
FN:409,_RNvMNtNtNtCs3mbXwXxPNJN_8devsweep3app4tabs14quarantine_tabNtNtB6_5state8DevSweep22render_quarantine_item
FN:269,_RNvMNtNtNtCs3mbXwXxPNJN_8devsweep3app4tabs14quarantine_tabNtNtB6_5state8DevSweep24render_quarantine_record
FNDA:0,_RNCNCNvMNtNtNtCshVE6m5yoyjE_8devsweep3app4tabs14quarantine_tabNtNtBa_5state8DevSweep21render_quarantine_tabs4_00Bc_
FNDA:0,_RNCNCNvMNtNtNtCshVE6m5yoyjE_8devsweep3app4tabs14quarantine_tabNtNtBa_5state8DevSweep21render_quarantine_tabs4_0s0_0Bc_
FNDA:0,_RNCNCNvMNtNtNtCshVE6m5yoyjE_8devsweep3app4tabs14quarantine_tabNtNtBa_5state8DevSweep21render_quarantine_tabs4_0s_0Bc_
FNDA:0,_RNCNCNvMNtNtNtCshVE6m5yoyjE_8devsweep3app4tabs14quarantine_tabNtNtBa_5state8DevSweep21render_quarantine_tabs6_00Bc_
FNDA:0,_RNCNCNvMNtNtNtCshVE6m5yoyjE_8devsweep3app4tabs14quarantine_tabNtNtBa_5state8DevSweep22render_quarantine_items1_00Bc_
FNDA:0,_RNCNCNvMNtNtNtCshVE6m5yoyjE_8devsweep3app4tabs14quarantine_tabNtNtBa_5state8DevSweep22render_quarantine_items1_0s0_0Bc_
FNDA:0,_RNCNCNvMNtNtNtCshVE6m5yoyjE_8devsweep3app4tabs14quarantine_tabNtNtBa_5state8DevSweep22render_quarantine_items1_0s_0Bc_
FNDA:0,_RNCNCNvMNtNtNtCshVE6m5yoyjE_8devsweep3app4tabs14quarantine_tabNtNtBa_5state8DevSweep24render_quarantine_records2_00Bc_
FNDA:0,_RNCNCNvMNtNtNtCshVE6m5yoyjE_8devsweep3app4tabs14quarantine_tabNtNtBa_5state8DevSweep24render_quarantine_records2_0s0_0Bc_
FNDA:0,_RNCNCNvMNtNtNtCshVE6m5yoyjE_8devsweep3app4tabs14quarantine_tabNtNtBa_5state8DevSweep24render_quarantine_records2_0s_0Bc_
FNDA:0,_RNCNCNvMNtNtNtCshVE6m5yoyjE_8devsweep3app4tabs14quarantine_tabNtNtBa_5state8DevSweep24render_quarantine_records3_00Bc_
FNDA:0,_RNCNvMNtNtNtCshVE6m5yoyjE_8devsweep3app4tabs14quarantine_tabNtNtB8_5state8DevSweep21render_quarantine_tab0Ba_
FNDA:0,_RNCNvMNtNtNtCshVE6m5yoyjE_8devsweep3app4tabs14quarantine_tabNtNtB8_5state8DevSweep21render_quarantine_tabs0_0Ba_
FNDA:0,_RNCNvMNtNtNtCshVE6m5yoyjE_8devsweep3app4tabs14quarantine_tabNtNtB8_5state8DevSweep21render_quarantine_tabs1_0Ba_
FNDA:0,_RNCNvMNtNtNtCshVE6m5yoyjE_8devsweep3app4tabs14quarantine_tabNtNtB8_5state8DevSweep21render_quarantine_tabs2_0Ba_
FNDA:0,_RNCNvMNtNtNtCshVE6m5yoyjE_8devsweep3app4tabs14quarantine_tabNtNtB8_5state8DevSweep21render_quarantine_tabs3_0Ba_
FNDA:0,_RNCNvMNtNtNtCshVE6m5yoyjE_8devsweep3app4tabs14quarantine_tabNtNtB8_5state8DevSweep21render_quarantine_tabs4_0Ba_
FNDA:0,_RNCNvMNtNtNtCshVE6m5yoyjE_8devsweep3app4tabs14quarantine_tabNtNtB8_5state8DevSweep21render_quarantine_tabs5_0Ba_
FNDA:0,_RNCNvMNtNtNtCshVE6m5yoyjE_8devsweep3app4tabs14quarantine_tabNtNtB8_5state8DevSweep21render_quarantine_tabs6_0Ba_
FNDA:0,_RNCNvMNtNtNtCshVE6m5yoyjE_8devsweep3app4tabs14quarantine_tabNtNtB8_5state8DevSweep21render_quarantine_tabs_0Ba_
FNDA:0,_RNCNvMNtNtNtCshVE6m5yoyjE_8devsweep3app4tabs14quarantine_tabNtNtB8_5state8DevSweep22render_quarantine_item0Ba_
FNDA:0,_RNCNvMNtNtNtCshVE6m5yoyjE_8devsweep3app4tabs14quarantine_tabNtNtB8_5state8DevSweep22render_quarantine_items0_0Ba_
FNDA:0,_RNCNvMNtNtNtCshVE6m5yoyjE_8devsweep3app4tabs14quarantine_tabNtNtB8_5state8DevSweep22render_quarantine_items1_0Ba_
FNDA:0,_RNCNvMNtNtNtCshVE6m5yoyjE_8devsweep3app4tabs14quarantine_tabNtNtB8_5state8DevSweep22render_quarantine_items_0Ba_
FNDA:0,_RNCNvMNtNtNtCshVE6m5yoyjE_8devsweep3app4tabs14quarantine_tabNtNtB8_5state8DevSweep24render_quarantine_record0Ba_
FNDA:0,_RNCNvMNtNtNtCshVE6m5yoyjE_8devsweep3app4tabs14quarantine_tabNtNtB8_5state8DevSweep24render_quarantine_records0_0Ba_
FNDA:0,_RNCNvMNtNtNtCshVE6m5yoyjE_8devsweep3app4tabs14quarantine_tabNtNtB8_5state8DevSweep24render_quarantine_records1_0Ba_
FNDA:0,_RNCNvMNtNtNtCshVE6m5yoyjE_8devsweep3app4tabs14quarantine_tabNtNtB8_5state8DevSweep24render_quarantine_records2_0Ba_
FNDA:0,_RNCNvMNtNtNtCshVE6m5yoyjE_8devsweep3app4tabs14quarantine_tabNtNtB8_5state8DevSweep24render_quarantine_records3_0Ba_
FNDA:0,_RNCNvMNtNtNtCshVE6m5yoyjE_8devsweep3app4tabs14quarantine_tabNtNtB8_5state8DevSweep24render_quarantine_records_0Ba_
FNDA:0,_RNvMNtNtNtCshVE6m5yoyjE_8devsweep3app4tabs14quarantine_tabNtNtB6_5state8DevSweep21render_quarantine_tab
FNDA:0,_RNvMNtNtNtCshVE6m5yoyjE_8devsweep3app4tabs14quarantine_tabNtNtB6_5state8DevSweep22render_quarantine_item
FNDA:0,_RNvMNtNtNtCshVE6m5yoyjE_8devsweep3app4tabs14quarantine_tabNtNtB6_5state8DevSweep24render_quarantine_record
FNDA:0,_RNCNCNvMNtNtNtCs3mbXwXxPNJN_8devsweep3app4tabs14quarantine_tabNtNtBa_5state8DevSweep21render_quarantine_tabs4_00Bc_
FNDA:0,_RNCNCNvMNtNtNtCs3mbXwXxPNJN_8devsweep3app4tabs14quarantine_tabNtNtBa_5state8DevSweep21render_quarantine_tabs4_0s0_0Bc_
FNDA:0,_RNCNCNvMNtNtNtCs3mbXwXxPNJN_8devsweep3app4tabs14quarantine_tabNtNtBa_5state8DevSweep21render_quarantine_tabs4_0s_0Bc_
FNDA:0,_RNCNCNvMNtNtNtCs3mbXwXxPNJN_8devsweep3app4tabs14quarantine_tabNtNtBa_5state8DevSweep21render_quarantine_tabs6_00Bc_
FNDA:0,_RNCNCNvMNtNtNtCs3mbXwXxPNJN_8devsweep3app4tabs14quarantine_tabNtNtBa_5state8DevSweep22render_quarantine_items1_00Bc_
FNDA:0,_RNCNCNvMNtNtNtCs3mbXwXxPNJN_8devsweep3app4tabs14quarantine_tabNtNtBa_5state8DevSweep22render_quarantine_items1_0s0_0Bc_
FNDA:0,_RNCNCNvMNtNtNtCs3mbXwXxPNJN_8devsweep3app4tabs14quarantine_tabNtNtBa_5state8DevSweep22render_quarantine_items1_0s_0Bc_
FNDA:0,_RNCNCNvMNtNtNtCs3mbXwXxPNJN_8devsweep3app4tabs14quarantine_tabNtNtBa_5state8DevSweep24render_quarantine_records2_00Bc_
FNDA:0,_RNCNCNvMNtNtNtCs3mbXwXxPNJN_8devsweep3app4tabs14quarantine_tabNtNtBa_5state8DevSweep24render_quarantine_records2_0s0_0Bc_
FNDA:0,_RNCNCNvMNtNtNtCs3mbXwXxPNJN_8devsweep3app4tabs14quarantine_tabNtNtBa_5state8DevSweep24render_quarantine_records2_0s_0Bc_
FNDA:0,_RNCNCNvMNtNtNtCs3mbXwXxPNJN_8devsweep3app4tabs14quarantine_tabNtNtBa_5state8DevSweep24render_quarantine_records3_00Bc_
FNDA:0,_RNCNvMNtNtNtCs3mbXwXxPNJN_8devsweep3app4tabs14quarantine_tabNtNtB8_5state8DevSweep21render_quarantine_tab0Ba_
FNDA:0,_RNCNvMNtNtNtCs3mbXwXxPNJN_8devsweep3app4tabs14quarantine_tabNtNtB8_5state8DevSweep21render_quarantine_tabs0_0Ba_
FNDA:0,_RNCNvMNtNtNtCs3mbXwXxPNJN_8devsweep3app4tabs14quarantine_tabNtNtB8_5state8DevSweep21render_quarantine_tabs1_0Ba_
FNDA:0,_RNCNvMNtNtNtCs3mbXwXxPNJN_8devsweep3app4tabs14quarantine_tabNtNtB8_5state8DevSweep21render_quarantine_tabs2_0Ba_
FNDA:0,_RNCNvMNtNtNtCs3mbXwXxPNJN_8devsweep3app4tabs14quarantine_tabNtNtB8_5state8DevSweep21render_quarantine_tabs3_0Ba_
FNDA:0,_RNCNvMNtNtNtCs3mbXwXxPNJN_8devsweep3app4tabs14quarantine_tabNtNtB8_5state8DevSweep21render_quarantine_tabs4_0Ba_
FNDA:0,_RNCNvMNtNtNtCs3mbXwXxPNJN_8devsweep3app4tabs14quarantine_tabNtNtB8_5state8DevSweep21render_quarantine_tabs5_0Ba_
FNDA:0,_RNCNvMNtNtNtCs3mbXwXxPNJN_8devsweep3app4tabs14quarantine_tabNtNtB8_5state8DevSweep21render_quarantine_tabs6_0Ba_
FNDA:0,_RNCNvMNtNtNtCs3mbXwXxPNJN_8devsweep3app4tabs14quarantine_tabNtNtB8_5state8DevSweep21render_quarantine_tabs_0Ba_
FNDA:0,_RNCNvMNtNtNtCs3mbXwXxPNJN_8devsweep3app4tabs14quarantine_tabNtNtB8_5state8DevSweep22render_quarantine_item0Ba_
FNDA:0,_RNCNvMNtNtNtCs3mbXwXxPNJN_8devsweep3app4tabs14quarantine_tabNtNtB8_5state8DevSweep22render_quarantine_items0_0Ba_
FNDA:0,_RNCNvMNtNtNtCs3mbXwXxPNJN_8devsweep3app4tabs14quarantine_tabNtNtB8_5state8DevSweep22render_quarantine_items1_0Ba_
FNDA:0,_RNCNvMNtNtNtCs3mbXwXxPNJN_8devsweep3app4tabs14quarantine_tabNtNtB8_5state8DevSweep22render_quarantine_items_0Ba_
FNDA:0,_RNCNvMNtNtNtCs3mbXwXxPNJN_8devsweep3app4tabs14quarantine_tabNtNtB8_5state8DevSweep24render_quarantine_record0Ba_
FNDA:0,_RNCNvMNtNtNtCs3mbXwXxPNJN_8devsweep3app4tabs14quarantine_tabNtNtB8_5state8DevSweep24render_quarantine_records0_0Ba_
FNDA:0,_RNCNvMNtNtNtCs3mbXwXxPNJN_8devsweep3app4tabs14quarantine_tabNtNtB8_5state8DevSweep24render_quarantine_records1_0Ba_
FNDA:0,_RNCNvMNtNtNtCs3mbXwXxPNJN_8devsweep3app4tabs14quarantine_tabNtNtB8_5state8DevSweep24render_quarantine_records2_0Ba_
FNDA:0,_RNCNvMNtNtNtCs3mbXwXxPNJN_8devsweep3app4tabs14quarantine_tabNtNtB8_5state8DevSweep24render_quarantine_records3_0Ba_
FNDA:0,_RNCNvMNtNtNtCs3mbXwXxPNJN_8devsweep3app4tabs14quarantine_tabNtNtB8_5state8DevSweep24render_quarantine_records_0Ba_
FNDA:0,_RNvMNtNtNtCs3mbXwXxPNJN_8devsweep3app4tabs14quarantine_tabNtNtB6_5state8DevSweep21render_quarantine_tab
FNDA:0,_RNvMNtNtNtCs3mbXwXxPNJN_8devsweep3app4tabs14quarantine_tabNtNtB6_5state8DevSweep22render_quarantine_item
FNDA:0,_RNvMNtNtNtCs3mbXwXxPNJN_8devsweep3app4tabs14quarantine_tabNtNtB6_5state8DevSweep24render_quarantine_record
FNF:33
FNH:0
DA:7,0
DA:8,0
DA:9,0
DA:10,0
DA:11,0
DA:12,0
DA:13,0
DA:14,0
DA:16,0
DA:17,0
DA:18,0
DA:19,0
DA:20,0
DA:21,0
DA:23,0
DA:24,0
DA:25,0
DA:26,0
DA:27,0
DA:28,0
DA:29,0
DA:30,0
DA:31,0
DA:32,0
DA:33,0
DA:34,0
DA:35,0
DA:36,0
DA:37,0
DA:38,0
DA:39,0
DA:40,0
DA:41,0
DA:42,0
DA:44,0
DA:45,0
DA:46,0
DA:47,0
DA:48,0
DA:51,0
DA:52,0
DA:53,0
DA:54,0
DA:55,0
DA:56,0
DA:57,0
DA:58,0
DA:59,0
DA:60,0
DA:61,0
DA:62,0
DA:63,0
DA:64,0
DA:65,0
DA:66,0
DA:67,0
DA:68,0
DA:69,0
DA:70,0
DA:71,0
DA:72,0
DA:73,0
DA:74,0
DA:75,0
DA:76,0
DA:79,0
DA:80,0
DA:81,0
DA:82,0
DA:83,0
DA:84,0
DA:85,0
DA:86,0
DA:87,0
DA:88,0
DA:89,0
DA:90,0
DA:91,0
DA:92,0
DA:93,0
DA:94,0
DA:95,0
DA:96,0
DA:97,0
DA:98,0
DA:99,0
DA:100,0
DA:101,0
DA:102,0
DA:103,0
DA:104,0
DA:105,0
DA:106,0
DA:109,0
DA:110,0
DA:111,0
DA:112,0
DA:113,0
DA:114,0
DA:115,0
DA:116,0
DA:117,0
DA:118,0
DA:119,0
DA:120,0
DA:121,0
DA:122,0
DA:123,0
DA:124,0
DA:125,0
DA:126,0
DA:127,0
DA:128,0
DA:129,0
DA:130,0
DA:131,0
DA:132,0
DA:135,0
DA:136,0
DA:137,0
DA:138,0
DA:139,0
DA:140,0
DA:141,0
DA:142,0
DA:143,0
DA:144,0
DA:145,0
DA:146,0
DA:147,0
DA:150,0
DA:154,0
DA:155,0
DA:156,0
DA:157,0
DA:158,0
DA:159,0
DA:160,0
DA:161,0
DA:162,0
DA:163,0
DA:164,0
DA:165,0
DA:166,0
DA:167,0
DA:168,0
DA:169,0
DA:170,0
DA:171,0
DA:172,0
DA:174,0
DA:175,0
DA:176,0
DA:177,0
DA:178,0
DA:179,0
DA:182,0
DA:183,0
DA:184,0
DA:185,0
DA:186,0
DA:187,0
DA:188,0
DA:189,0
DA:190,0
DA:191,0
DA:193,0
DA:194,0
DA:195,0
DA:196,0
DA:197,0
DA:198,0
DA:201,0
DA:202,0
DA:203,0
DA:204,0
DA:205,0
DA:206,0
DA:207,0
DA:208,0
DA:209,0
DA:210,0
DA:212,0
DA:213,0
DA:214,0
DA:215,0
DA:216,0
DA:217,0
DA:222,0
DA:223,0
DA:224,0
DA:225,0
DA:226,0
DA:227,0
DA:228,0
DA:229,0
DA:230,0
DA:231,0
DA:232,0
DA:233,0
DA:234,0
DA:235,0
DA:236,0
DA:240,0
DA:241,0
DA:242,0
DA:243,0
DA:244,0
DA:245,0
DA:246,0
DA:247,0
DA:249,0
DA:250,0
DA:251,0
DA:252,0
DA:253,0
DA:254,0
DA:255,0
DA:257,0
DA:258,0
DA:259,0
DA:260,0
DA:261,0
DA:263,0
DA:267,0
DA:269,0
DA:270,0
DA:271,0
DA:272,0
DA:273,0
DA:274,0
DA:275,0
DA:276,0
DA:277,0
DA:278,0
DA:279,0
DA:281,0
DA:282,0
DA:283,0
DA:284,0
DA:285,0
DA:286,0
DA:288,0
DA:289,0
DA:290,0
DA:291,0
DA:292,0
DA:293,0
DA:294,0
DA:295,0
DA:296,0
DA:297,0
DA:298,0
DA:299,0
DA:300,0
DA:301,0
DA:302,0
DA:303,0
DA:304,0
DA:305,0
DA:306,0
DA:307,0
DA:308,0
DA:309,0
DA:311,0
DA:312,0
DA:313,0
DA:314,0
DA:315,0
DA:316,0
DA:317,0
DA:318,0
DA:319,0
DA:320,0
DA:321,0
DA:322,0
DA:324,0
DA:325,0
DA:326,0
DA:327,0
DA:328,0
DA:329,0
DA:330,0
DA:331,0
DA:332,0
DA:333,0
DA:335,0
DA:336,0
DA:337,0
DA:338,0
DA:339,0
DA:340,0
DA:342,0
DA:345,0
DA:346,0
DA:347,0
DA:348,0
DA:349,0
DA:350,0
DA:351,0
DA:352,0
DA:353,0
DA:354,0
DA:355,0
DA:358,0
DA:359,0
DA:360,0
DA:361,0
DA:362,0
DA:363,0
DA:365,0
DA:366,0
DA:367,0
DA:368,0
DA:369,0
DA:370,0
DA:371,0
DA:372,0
DA:373,0
DA:374,0
DA:375,0
DA:376,0
DA:377,0
DA:378,0
DA:379,0
DA:380,0
DA:381,0
DA:382,0
DA:383,0
DA:384,0
DA:385,0
DA:386,0
DA:387,0
DA:390,0
DA:393,0
DA:394,0
DA:395,0
DA:396,0
DA:397,0
DA:398,0
DA:399,0
DA:400,0
DA:401,0
DA:402,0
DA:403,0
DA:406,0
DA:407,0
DA:409,0
DA:410,0
DA:411,0
DA:412,0
DA:413,0
DA:414,0
DA:415,0
DA:416,0
DA:417,0
DA:418,0
DA:419,0
DA:421,0
DA:422,0
DA:423,0
DA:424,0
DA:425,0
DA:426,0
DA:427,0
DA:428,0
DA:429,0
DA:430,0
DA:431,0
DA:432,0
DA:433,0
DA:434,0
DA:435,0
DA:436,0
DA:437,0
DA:439,0
DA:442,0
DA:443,0
DA:444,0
DA:445,0
DA:446,0
DA:447,0
DA:448,0
DA:449,0
DA:450,0
DA:451,0
DA:452,0
DA:454,0
DA:455,0
DA:456,0
DA:457,0
DA:458,0
DA:460,0
DA:461,0
DA:462,0
DA:463,0
DA:464,0
DA:465,0
DA:467,0
DA:469,0
DA:470,0
DA:471,0
DA:472,0
DA:473,0
DA:474,0
DA:475,0
DA:476,0
DA:477,0
DA:478,0
DA:479,0
DA:480,0
DA:483,0
DA:484,0
DA:485,0
DA:486,0
DA:487,0
DA:488,0
DA:490,0
DA:491,0
DA:492,0
DA:493,0
DA:494,0
DA:497,0
DA:498,0
DA:499,0
DA:500,0
DA:501,0
DA:502,0
DA:503,0
DA:504,0
DA:505,0
DA:506,0
DA:507,0
DA:508,0
DA:509,0
DA:510,0
DA:511,0
DA:512,0
DA:515,0
DA:516,0
BRF:0
BRH:0
LF:470
LH:0
end_of_record
SF:/Users/canggih/Documents/Kedata/cleanstorage/dev-cleaner/src/app/tabs/scan_tab.rs
FN:445,_RNCNCNCNvMNtNtNtCshVE6m5yoyjE_8devsweep3app4tabs8scan_tabNtNtBc_5state8DevSweep23render_category_sections4_000Be_
FN:246,_RNCNCNvMNtNtNtCshVE6m5yoyjE_8devsweep3app4tabs8scan_tabNtNtBa_5state8DevSweep15render_scan_tabs6_00Bc_
FN:252,_RNCNCNvMNtNtNtCshVE6m5yoyjE_8devsweep3app4tabs8scan_tabNtNtBa_5state8DevSweep15render_scan_tabs6_0s0_0Bc_
FN:247,_RNCNCNvMNtNtNtCshVE6m5yoyjE_8devsweep3app4tabs8scan_tabNtNtBa_5state8DevSweep15render_scan_tabs6_0s_0Bc_
FN:295,_RNCNCNvMNtNtNtCshVE6m5yoyjE_8devsweep3app4tabs8scan_tabNtNtBa_5state8DevSweep15render_scan_tabs8_00Bc_
FN:85,_RNCNCNvMNtNtNtCshVE6m5yoyjE_8devsweep3app4tabs8scan_tabNtNtBa_5state8DevSweep15render_scan_tabs_00Bc_
FN:91,_RNCNCNvMNtNtNtCshVE6m5yoyjE_8devsweep3app4tabs8scan_tabNtNtBa_5state8DevSweep15render_scan_tabs_0s0_0Bc_
FN:110,_RNCNCNvMNtNtNtCshVE6m5yoyjE_8devsweep3app4tabs8scan_tabNtNtBa_5state8DevSweep15render_scan_tabs_0s1_0Bc_
FN:111,_RNCNCNvMNtNtNtCshVE6m5yoyjE_8devsweep3app4tabs8scan_tabNtNtBa_5state8DevSweep15render_scan_tabs_0s2_0Bc_
FN:114,_RNCNCNvMNtNtNtCshVE6m5yoyjE_8devsweep3app4tabs8scan_tabNtNtBa_5state8DevSweep15render_scan_tabs_0s3_0Bc_
FN:86,_RNCNCNvMNtNtNtCshVE6m5yoyjE_8devsweep3app4tabs8scan_tabNtNtBa_5state8DevSweep15render_scan_tabs_0s_0Bc_
FN:441,_RNCNCNvMNtNtNtCshVE6m5yoyjE_8devsweep3app4tabs8scan_tabNtNtBa_5state8DevSweep23render_category_sections4_00Bc_
FN:57,_RNCNvMNtNtNtCshVE6m5yoyjE_8devsweep3app4tabs8scan_tabNtNtB8_5state8DevSweep15render_scan_tab0Ba_
FN:199,_RNCNvMNtNtNtCshVE6m5yoyjE_8devsweep3app4tabs8scan_tabNtNtB8_5state8DevSweep15render_scan_tabs0_0Ba_
FN:200,_RNCNvMNtNtNtCshVE6m5yoyjE_8devsweep3app4tabs8scan_tabNtNtB8_5state8DevSweep15render_scan_tabs1_0Ba_
FN:203,_RNCNvMNtNtNtCshVE6m5yoyjE_8devsweep3app4tabs8scan_tabNtNtB8_5state8DevSweep15render_scan_tabs2_0Ba_
FN:222,_RNCNvMNtNtNtCshVE6m5yoyjE_8devsweep3app4tabs8scan_tabNtNtB8_5state8DevSweep15render_scan_tabs3_0Ba_
FN:223,_RNCNvMNtNtNtCshVE6m5yoyjE_8devsweep3app4tabs8scan_tabNtNtB8_5state8DevSweep15render_scan_tabs4_0Ba_
FN:226,_RNCNvMNtNtNtCshVE6m5yoyjE_8devsweep3app4tabs8scan_tabNtNtB8_5state8DevSweep15render_scan_tabs5_0Ba_
FN:237,_RNCNvMNtNtNtCshVE6m5yoyjE_8devsweep3app4tabs8scan_tabNtNtB8_5state8DevSweep15render_scan_tabs6_0Ba_
FN:264,_RNCNvMNtNtNtCshVE6m5yoyjE_8devsweep3app4tabs8scan_tabNtNtB8_5state8DevSweep15render_scan_tabs7_0Ba_
FN:292,_RNCNvMNtNtNtCshVE6m5yoyjE_8devsweep3app4tabs8scan_tabNtNtB8_5state8DevSweep15render_scan_tabs8_0Ba_
FN:76,_RNCNvMNtNtNtCshVE6m5yoyjE_8devsweep3app4tabs8scan_tabNtNtB8_5state8DevSweep15render_scan_tabs_0Ba_
FN:477,_RNCNvMNtNtNtCshVE6m5yoyjE_8devsweep3app4tabs8scan_tabNtNtB8_5state8DevSweep19render_cleanup_item0Ba_
FN:482,_RNCNvMNtNtNtCshVE6m5yoyjE_8devsweep3app4tabs8scan_tabNtNtB8_5state8DevSweep19render_cleanup_items0_0Ba_
FN:506,_RNCNvMNtNtNtCshVE6m5yoyjE_8devsweep3app4tabs8scan_tabNtNtB8_5state8DevSweep19render_cleanup_items1_0Ba_
FN:528,_RNCNvMNtNtNtCshVE6m5yoyjE_8devsweep3app4tabs8scan_tabNtNtB8_5state8DevSweep19render_cleanup_items2_0Ba_
FN:538,_RNCNvMNtNtNtCshVE6m5yoyjE_8devsweep3app4tabs8scan_tabNtNtB8_5state8DevSweep19render_cleanup_items3_0Ba_
FN:554,_RNCNvMNtNtNtCshVE6m5yoyjE_8devsweep3app4tabs8scan_tabNtNtB8_5state8DevSweep19render_cleanup_items4_0Ba_
FN:478,_RNCNvMNtNtNtCshVE6m5yoyjE_8devsweep3app4tabs8scan_tabNtNtB8_5state8DevSweep19render_cleanup_items_0Ba_
FN:355,_RNCNvMNtNtNtCshVE6m5yoyjE_8devsweep3app4tabs8scan_tabNtNtB8_5state8DevSweep23render_category_section0Ba_
FN:358,_RNCNvMNtNtNtCshVE6m5yoyjE_8devsweep3app4tabs8scan_tabNtNtB8_5state8DevSweep23render_category_sections0_0Ba_
FN:390,_RNCNvMNtNtNtCshVE6m5yoyjE_8devsweep3app4tabs8scan_tabNtNtB8_5state8DevSweep23render_category_sections1_0Ba_
FN:391,_RNCNvMNtNtNtCshVE6m5yoyjE_8devsweep3app4tabs8scan_tabNtNtB8_5state8DevSweep23render_category_sections2_0Ba_
FN:395,_RNCNvMNtNtNtCshVE6m5yoyjE_8devsweep3app4tabs8scan_tabNtNtB8_5state8DevSweep23render_category_sections3_0Ba_
FN:434,_RNCNvMNtNtNtCshVE6m5yoyjE_8devsweep3app4tabs8scan_tabNtNtB8_5state8DevSweep23render_category_sections4_0Ba_
FN:356,_RNCNvMNtNtNtCshVE6m5yoyjE_8devsweep3app4tabs8scan_tabNtNtB8_5state8DevSweep23render_category_sections_0Ba_
FN:311,_RNvMNtNtNtCshVE6m5yoyjE_8devsweep3app4tabs8scan_tabNtNtB6_5state8DevSweep11empty_state
FN:7,_RNvMNtNtNtCshVE6m5yoyjE_8devsweep3app4tabs8scan_tabNtNtB6_5state8DevSweep15render_scan_tab
FN:457,_RNvMNtNtNtCshVE6m5yoyjE_8devsweep3app4tabs8scan_tabNtNtB6_5state8DevSweep19render_cleanup_item
FN:329,_RNvMNtNtNtCshVE6m5yoyjE_8devsweep3app4tabs8scan_tabNtNtB6_5state8DevSweep23render_category_section
FN:445,_RNCNCNCNvMNtNtNtCs3mbXwXxPNJN_8devsweep3app4tabs8scan_tabNtNtBc_5state8DevSweep23render_category_sections4_000Be_
FN:246,_RNCNCNvMNtNtNtCs3mbXwXxPNJN_8devsweep3app4tabs8scan_tabNtNtBa_5state8DevSweep15render_scan_tabs6_00Bc_
FN:252,_RNCNCNvMNtNtNtCs3mbXwXxPNJN_8devsweep3app4tabs8scan_tabNtNtBa_5state8DevSweep15render_scan_tabs6_0s0_0Bc_
FN:247,_RNCNCNvMNtNtNtCs3mbXwXxPNJN_8devsweep3app4tabs8scan_tabNtNtBa_5state8DevSweep15render_scan_tabs6_0s_0Bc_
FN:295,_RNCNCNvMNtNtNtCs3mbXwXxPNJN_8devsweep3app4tabs8scan_tabNtNtBa_5state8DevSweep15render_scan_tabs8_00Bc_
FN:85,_RNCNCNvMNtNtNtCs3mbXwXxPNJN_8devsweep3app4tabs8scan_tabNtNtBa_5state8DevSweep15render_scan_tabs_00Bc_
FN:91,_RNCNCNvMNtNtNtCs3mbXwXxPNJN_8devsweep3app4tabs8scan_tabNtNtBa_5state8DevSweep15render_scan_tabs_0s0_0Bc_
FN:110,_RNCNCNvMNtNtNtCs3mbXwXxPNJN_8devsweep3app4tabs8scan_tabNtNtBa_5state8DevSweep15render_scan_tabs_0s1_0Bc_
FN:111,_RNCNCNvMNtNtNtCs3mbXwXxPNJN_8devsweep3app4tabs8scan_tabNtNtBa_5state8DevSweep15render_scan_tabs_0s2_0Bc_
FN:114,_RNCNCNvMNtNtNtCs3mbXwXxPNJN_8devsweep3app4tabs8scan_tabNtNtBa_5state8DevSweep15render_scan_tabs_0s3_0Bc_
FN:86,_RNCNCNvMNtNtNtCs3mbXwXxPNJN_8devsweep3app4tabs8scan_tabNtNtBa_5state8DevSweep15render_scan_tabs_0s_0Bc_
FN:441,_RNCNCNvMNtNtNtCs3mbXwXxPNJN_8devsweep3app4tabs8scan_tabNtNtBa_5state8DevSweep23render_category_sections4_00Bc_
FN:57,_RNCNvMNtNtNtCs3mbXwXxPNJN_8devsweep3app4tabs8scan_tabNtNtB8_5state8DevSweep15render_scan_tab0Ba_
FN:199,_RNCNvMNtNtNtCs3mbXwXxPNJN_8devsweep3app4tabs8scan_tabNtNtB8_5state8DevSweep15render_scan_tabs0_0Ba_
FN:200,_RNCNvMNtNtNtCs3mbXwXxPNJN_8devsweep3app4tabs8scan_tabNtNtB8_5state8DevSweep15render_scan_tabs1_0Ba_
FN:203,_RNCNvMNtNtNtCs3mbXwXxPNJN_8devsweep3app4tabs8scan_tabNtNtB8_5state8DevSweep15render_scan_tabs2_0Ba_
FN:222,_RNCNvMNtNtNtCs3mbXwXxPNJN_8devsweep3app4tabs8scan_tabNtNtB8_5state8DevSweep15render_scan_tabs3_0Ba_
FN:223,_RNCNvMNtNtNtCs3mbXwXxPNJN_8devsweep3app4tabs8scan_tabNtNtB8_5state8DevSweep15render_scan_tabs4_0Ba_
FN:226,_RNCNvMNtNtNtCs3mbXwXxPNJN_8devsweep3app4tabs8scan_tabNtNtB8_5state8DevSweep15render_scan_tabs5_0Ba_
FN:237,_RNCNvMNtNtNtCs3mbXwXxPNJN_8devsweep3app4tabs8scan_tabNtNtB8_5state8DevSweep15render_scan_tabs6_0Ba_
FN:264,_RNCNvMNtNtNtCs3mbXwXxPNJN_8devsweep3app4tabs8scan_tabNtNtB8_5state8DevSweep15render_scan_tabs7_0Ba_
FN:292,_RNCNvMNtNtNtCs3mbXwXxPNJN_8devsweep3app4tabs8scan_tabNtNtB8_5state8DevSweep15render_scan_tabs8_0Ba_
FN:76,_RNCNvMNtNtNtCs3mbXwXxPNJN_8devsweep3app4tabs8scan_tabNtNtB8_5state8DevSweep15render_scan_tabs_0Ba_
FN:477,_RNCNvMNtNtNtCs3mbXwXxPNJN_8devsweep3app4tabs8scan_tabNtNtB8_5state8DevSweep19render_cleanup_item0Ba_
FN:482,_RNCNvMNtNtNtCs3mbXwXxPNJN_8devsweep3app4tabs8scan_tabNtNtB8_5state8DevSweep19render_cleanup_items0_0Ba_
FN:506,_RNCNvMNtNtNtCs3mbXwXxPNJN_8devsweep3app4tabs8scan_tabNtNtB8_5state8DevSweep19render_cleanup_items1_0Ba_
FN:528,_RNCNvMNtNtNtCs3mbXwXxPNJN_8devsweep3app4tabs8scan_tabNtNtB8_5state8DevSweep19render_cleanup_items2_0Ba_
FN:538,_RNCNvMNtNtNtCs3mbXwXxPNJN_8devsweep3app4tabs8scan_tabNtNtB8_5state8DevSweep19render_cleanup_items3_0Ba_
FN:554,_RNCNvMNtNtNtCs3mbXwXxPNJN_8devsweep3app4tabs8scan_tabNtNtB8_5state8DevSweep19render_cleanup_items4_0Ba_
FN:478,_RNCNvMNtNtNtCs3mbXwXxPNJN_8devsweep3app4tabs8scan_tabNtNtB8_5state8DevSweep19render_cleanup_items_0Ba_
FN:355,_RNCNvMNtNtNtCs3mbXwXxPNJN_8devsweep3app4tabs8scan_tabNtNtB8_5state8DevSweep23render_category_section0Ba_
FN:358,_RNCNvMNtNtNtCs3mbXwXxPNJN_8devsweep3app4tabs8scan_tabNtNtB8_5state8DevSweep23render_category_sections0_0Ba_
FN:390,_RNCNvMNtNtNtCs3mbXwXxPNJN_8devsweep3app4tabs8scan_tabNtNtB8_5state8DevSweep23render_category_sections1_0Ba_
FN:391,_RNCNvMNtNtNtCs3mbXwXxPNJN_8devsweep3app4tabs8scan_tabNtNtB8_5state8DevSweep23render_category_sections2_0Ba_
FN:395,_RNCNvMNtNtNtCs3mbXwXxPNJN_8devsweep3app4tabs8scan_tabNtNtB8_5state8DevSweep23render_category_sections3_0Ba_
FN:434,_RNCNvMNtNtNtCs3mbXwXxPNJN_8devsweep3app4tabs8scan_tabNtNtB8_5state8DevSweep23render_category_sections4_0Ba_
FN:356,_RNCNvMNtNtNtCs3mbXwXxPNJN_8devsweep3app4tabs8scan_tabNtNtB8_5state8DevSweep23render_category_sections_0Ba_
FN:311,_RNvMNtNtNtCs3mbXwXxPNJN_8devsweep3app4tabs8scan_tabNtNtB6_5state8DevSweep11empty_state
FN:7,_RNvMNtNtNtCs3mbXwXxPNJN_8devsweep3app4tabs8scan_tabNtNtB6_5state8DevSweep15render_scan_tab
FN:457,_RNvMNtNtNtCs3mbXwXxPNJN_8devsweep3app4tabs8scan_tabNtNtB6_5state8DevSweep19render_cleanup_item
FN:329,_RNvMNtNtNtCs3mbXwXxPNJN_8devsweep3app4tabs8scan_tabNtNtB6_5state8DevSweep23render_category_section
FNDA:0,_RNCNCNCNvMNtNtNtCshVE6m5yoyjE_8devsweep3app4tabs8scan_tabNtNtBc_5state8DevSweep23render_category_sections4_000Be_
FNDA:0,_RNCNCNvMNtNtNtCshVE6m5yoyjE_8devsweep3app4tabs8scan_tabNtNtBa_5state8DevSweep15render_scan_tabs6_00Bc_
FNDA:0,_RNCNCNvMNtNtNtCshVE6m5yoyjE_8devsweep3app4tabs8scan_tabNtNtBa_5state8DevSweep15render_scan_tabs6_0s0_0Bc_
FNDA:0,_RNCNCNvMNtNtNtCshVE6m5yoyjE_8devsweep3app4tabs8scan_tabNtNtBa_5state8DevSweep15render_scan_tabs6_0s_0Bc_
FNDA:0,_RNCNCNvMNtNtNtCshVE6m5yoyjE_8devsweep3app4tabs8scan_tabNtNtBa_5state8DevSweep15render_scan_tabs8_00Bc_
FNDA:0,_RNCNCNvMNtNtNtCshVE6m5yoyjE_8devsweep3app4tabs8scan_tabNtNtBa_5state8DevSweep15render_scan_tabs_00Bc_
FNDA:0,_RNCNCNvMNtNtNtCshVE6m5yoyjE_8devsweep3app4tabs8scan_tabNtNtBa_5state8DevSweep15render_scan_tabs_0s0_0Bc_
FNDA:0,_RNCNCNvMNtNtNtCshVE6m5yoyjE_8devsweep3app4tabs8scan_tabNtNtBa_5state8DevSweep15render_scan_tabs_0s1_0Bc_
FNDA:0,_RNCNCNvMNtNtNtCshVE6m5yoyjE_8devsweep3app4tabs8scan_tabNtNtBa_5state8DevSweep15render_scan_tabs_0s2_0Bc_
FNDA:0,_RNCNCNvMNtNtNtCshVE6m5yoyjE_8devsweep3app4tabs8scan_tabNtNtBa_5state8DevSweep15render_scan_tabs_0s3_0Bc_
FNDA:0,_RNCNCNvMNtNtNtCshVE6m5yoyjE_8devsweep3app4tabs8scan_tabNtNtBa_5state8DevSweep15render_scan_tabs_0s_0Bc_
FNDA:0,_RNCNCNvMNtNtNtCshVE6m5yoyjE_8devsweep3app4tabs8scan_tabNtNtBa_5state8DevSweep23render_category_sections4_00Bc_
FNDA:0,_RNCNvMNtNtNtCshVE6m5yoyjE_8devsweep3app4tabs8scan_tabNtNtB8_5state8DevSweep15render_scan_tab0Ba_
FNDA:0,_RNCNvMNtNtNtCshVE6m5yoyjE_8devsweep3app4tabs8scan_tabNtNtB8_5state8DevSweep15render_scan_tabs0_0Ba_
FNDA:0,_RNCNvMNtNtNtCshVE6m5yoyjE_8devsweep3app4tabs8scan_tabNtNtB8_5state8DevSweep15render_scan_tabs1_0Ba_
FNDA:0,_RNCNvMNtNtNtCshVE6m5yoyjE_8devsweep3app4tabs8scan_tabNtNtB8_5state8DevSweep15render_scan_tabs2_0Ba_
FNDA:0,_RNCNvMNtNtNtCshVE6m5yoyjE_8devsweep3app4tabs8scan_tabNtNtB8_5state8DevSweep15render_scan_tabs3_0Ba_
FNDA:0,_RNCNvMNtNtNtCshVE6m5yoyjE_8devsweep3app4tabs8scan_tabNtNtB8_5state8DevSweep15render_scan_tabs4_0Ba_
FNDA:0,_RNCNvMNtNtNtCshVE6m5yoyjE_8devsweep3app4tabs8scan_tabNtNtB8_5state8DevSweep15render_scan_tabs5_0Ba_
FNDA:0,_RNCNvMNtNtNtCshVE6m5yoyjE_8devsweep3app4tabs8scan_tabNtNtB8_5state8DevSweep15render_scan_tabs6_0Ba_
FNDA:0,_RNCNvMNtNtNtCshVE6m5yoyjE_8devsweep3app4tabs8scan_tabNtNtB8_5state8DevSweep15render_scan_tabs7_0Ba_
FNDA:0,_RNCNvMNtNtNtCshVE6m5yoyjE_8devsweep3app4tabs8scan_tabNtNtB8_5state8DevSweep15render_scan_tabs8_0Ba_
FNDA:0,_RNCNvMNtNtNtCshVE6m5yoyjE_8devsweep3app4tabs8scan_tabNtNtB8_5state8DevSweep15render_scan_tabs_0Ba_
FNDA:0,_RNCNvMNtNtNtCshVE6m5yoyjE_8devsweep3app4tabs8scan_tabNtNtB8_5state8DevSweep19render_cleanup_item0Ba_
FNDA:0,_RNCNvMNtNtNtCshVE6m5yoyjE_8devsweep3app4tabs8scan_tabNtNtB8_5state8DevSweep19render_cleanup_items0_0Ba_
FNDA:0,_RNCNvMNtNtNtCshVE6m5yoyjE_8devsweep3app4tabs8scan_tabNtNtB8_5state8DevSweep19render_cleanup_items1_0Ba_
FNDA:0,_RNCNvMNtNtNtCshVE6m5yoyjE_8devsweep3app4tabs8scan_tabNtNtB8_5state8DevSweep19render_cleanup_items2_0Ba_
FNDA:0,_RNCNvMNtNtNtCshVE6m5yoyjE_8devsweep3app4tabs8scan_tabNtNtB8_5state8DevSweep19render_cleanup_items3_0Ba_
FNDA:0,_RNCNvMNtNtNtCshVE6m5yoyjE_8devsweep3app4tabs8scan_tabNtNtB8_5state8DevSweep19render_cleanup_items4_0Ba_
FNDA:0,_RNCNvMNtNtNtCshVE6m5yoyjE_8devsweep3app4tabs8scan_tabNtNtB8_5state8DevSweep19render_cleanup_items_0Ba_
FNDA:0,_RNCNvMNtNtNtCshVE6m5yoyjE_8devsweep3app4tabs8scan_tabNtNtB8_5state8DevSweep23render_category_section0Ba_
FNDA:0,_RNCNvMNtNtNtCshVE6m5yoyjE_8devsweep3app4tabs8scan_tabNtNtB8_5state8DevSweep23render_category_sections0_0Ba_
FNDA:0,_RNCNvMNtNtNtCshVE6m5yoyjE_8devsweep3app4tabs8scan_tabNtNtB8_5state8DevSweep23render_category_sections1_0Ba_
FNDA:0,_RNCNvMNtNtNtCshVE6m5yoyjE_8devsweep3app4tabs8scan_tabNtNtB8_5state8DevSweep23render_category_sections2_0Ba_
FNDA:0,_RNCNvMNtNtNtCshVE6m5yoyjE_8devsweep3app4tabs8scan_tabNtNtB8_5state8DevSweep23render_category_sections3_0Ba_
FNDA:0,_RNCNvMNtNtNtCshVE6m5yoyjE_8devsweep3app4tabs8scan_tabNtNtB8_5state8DevSweep23render_category_sections4_0Ba_
FNDA:0,_RNCNvMNtNtNtCshVE6m5yoyjE_8devsweep3app4tabs8scan_tabNtNtB8_5state8DevSweep23render_category_sections_0Ba_
FNDA:0,_RNvMNtNtNtCshVE6m5yoyjE_8devsweep3app4tabs8scan_tabNtNtB6_5state8DevSweep11empty_state
FNDA:0,_RNvMNtNtNtCshVE6m5yoyjE_8devsweep3app4tabs8scan_tabNtNtB6_5state8DevSweep15render_scan_tab
FNDA:0,_RNvMNtNtNtCshVE6m5yoyjE_8devsweep3app4tabs8scan_tabNtNtB6_5state8DevSweep19render_cleanup_item
FNDA:0,_RNvMNtNtNtCshVE6m5yoyjE_8devsweep3app4tabs8scan_tabNtNtB6_5state8DevSweep23render_category_section
FNDA:0,_RNCNCNCNvMNtNtNtCs3mbXwXxPNJN_8devsweep3app4tabs8scan_tabNtNtBc_5state8DevSweep23render_category_sections4_000Be_
FNDA:0,_RNCNCNvMNtNtNtCs3mbXwXxPNJN_8devsweep3app4tabs8scan_tabNtNtBa_5state8DevSweep15render_scan_tabs6_00Bc_
FNDA:0,_RNCNCNvMNtNtNtCs3mbXwXxPNJN_8devsweep3app4tabs8scan_tabNtNtBa_5state8DevSweep15render_scan_tabs6_0s0_0Bc_
FNDA:0,_RNCNCNvMNtNtNtCs3mbXwXxPNJN_8devsweep3app4tabs8scan_tabNtNtBa_5state8DevSweep15render_scan_tabs6_0s_0Bc_
FNDA:0,_RNCNCNvMNtNtNtCs3mbXwXxPNJN_8devsweep3app4tabs8scan_tabNtNtBa_5state8DevSweep15render_scan_tabs8_00Bc_
FNDA:0,_RNCNCNvMNtNtNtCs3mbXwXxPNJN_8devsweep3app4tabs8scan_tabNtNtBa_5state8DevSweep15render_scan_tabs_00Bc_
FNDA:0,_RNCNCNvMNtNtNtCs3mbXwXxPNJN_8devsweep3app4tabs8scan_tabNtNtBa_5state8DevSweep15render_scan_tabs_0s0_0Bc_
FNDA:0,_RNCNCNvMNtNtNtCs3mbXwXxPNJN_8devsweep3app4tabs8scan_tabNtNtBa_5state8DevSweep15render_scan_tabs_0s1_0Bc_
FNDA:0,_RNCNCNvMNtNtNtCs3mbXwXxPNJN_8devsweep3app4tabs8scan_tabNtNtBa_5state8DevSweep15render_scan_tabs_0s2_0Bc_
FNDA:0,_RNCNCNvMNtNtNtCs3mbXwXxPNJN_8devsweep3app4tabs8scan_tabNtNtBa_5state8DevSweep15render_scan_tabs_0s3_0Bc_
FNDA:0,_RNCNCNvMNtNtNtCs3mbXwXxPNJN_8devsweep3app4tabs8scan_tabNtNtBa_5state8DevSweep15render_scan_tabs_0s_0Bc_
FNDA:0,_RNCNCNvMNtNtNtCs3mbXwXxPNJN_8devsweep3app4tabs8scan_tabNtNtBa_5state8DevSweep23render_category_sections4_00Bc_
FNDA:0,_RNCNvMNtNtNtCs3mbXwXxPNJN_8devsweep3app4tabs8scan_tabNtNtB8_5state8DevSweep15render_scan_tab0Ba_
FNDA:0,_RNCNvMNtNtNtCs3mbXwXxPNJN_8devsweep3app4tabs8scan_tabNtNtB8_5state8DevSweep15render_scan_tabs0_0Ba_
FNDA:0,_RNCNvMNtNtNtCs3mbXwXxPNJN_8devsweep3app4tabs8scan_tabNtNtB8_5state8DevSweep15render_scan_tabs1_0Ba_
FNDA:0,_RNCNvMNtNtNtCs3mbXwXxPNJN_8devsweep3app4tabs8scan_tabNtNtB8_5state8DevSweep15render_scan_tabs2_0Ba_
FNDA:0,_RNCNvMNtNtNtCs3mbXwXxPNJN_8devsweep3app4tabs8scan_tabNtNtB8_5state8DevSweep15render_scan_tabs3_0Ba_
FNDA:0,_RNCNvMNtNtNtCs3mbXwXxPNJN_8devsweep3app4tabs8scan_tabNtNtB8_5state8DevSweep15render_scan_tabs4_0Ba_
FNDA:0,_RNCNvMNtNtNtCs3mbXwXxPNJN_8devsweep3app4tabs8scan_tabNtNtB8_5state8DevSweep15render_scan_tabs5_0Ba_
FNDA:0,_RNCNvMNtNtNtCs3mbXwXxPNJN_8devsweep3app4tabs8scan_tabNtNtB8_5state8DevSweep15render_scan_tabs6_0Ba_
FNDA:0,_RNCNvMNtNtNtCs3mbXwXxPNJN_8devsweep3app4tabs8scan_tabNtNtB8_5state8DevSweep15render_scan_tabs7_0Ba_
FNDA:0,_RNCNvMNtNtNtCs3mbXwXxPNJN_8devsweep3app4tabs8scan_tabNtNtB8_5state8DevSweep15render_scan_tabs8_0Ba_
FNDA:0,_RNCNvMNtNtNtCs3mbXwXxPNJN_8devsweep3app4tabs8scan_tabNtNtB8_5state8DevSweep15render_scan_tabs_0Ba_
FNDA:0,_RNCNvMNtNtNtCs3mbXwXxPNJN_8devsweep3app4tabs8scan_tabNtNtB8_5state8DevSweep19render_cleanup_item0Ba_
FNDA:0,_RNCNvMNtNtNtCs3mbXwXxPNJN_8devsweep3app4tabs8scan_tabNtNtB8_5state8DevSweep19render_cleanup_items0_0Ba_
FNDA:0,_RNCNvMNtNtNtCs3mbXwXxPNJN_8devsweep3app4tabs8scan_tabNtNtB8_5state8DevSweep19render_cleanup_items1_0Ba_
FNDA:0,_RNCNvMNtNtNtCs3mbXwXxPNJN_8devsweep3app4tabs8scan_tabNtNtB8_5state8DevSweep19render_cleanup_items2_0Ba_
FNDA:0,_RNCNvMNtNtNtCs3mbXwXxPNJN_8devsweep3app4tabs8scan_tabNtNtB8_5state8DevSweep19render_cleanup_items3_0Ba_
FNDA:0,_RNCNvMNtNtNtCs3mbXwXxPNJN_8devsweep3app4tabs8scan_tabNtNtB8_5state8DevSweep19render_cleanup_items4_0Ba_
FNDA:0,_RNCNvMNtNtNtCs3mbXwXxPNJN_8devsweep3app4tabs8scan_tabNtNtB8_5state8DevSweep19render_cleanup_items_0Ba_
FNDA:0,_RNCNvMNtNtNtCs3mbXwXxPNJN_8devsweep3app4tabs8scan_tabNtNtB8_5state8DevSweep23render_category_section0Ba_
FNDA:0,_RNCNvMNtNtNtCs3mbXwXxPNJN_8devsweep3app4tabs8scan_tabNtNtB8_5state8DevSweep23render_category_sections0_0Ba_
FNDA:0,_RNCNvMNtNtNtCs3mbXwXxPNJN_8devsweep3app4tabs8scan_tabNtNtB8_5state8DevSweep23render_category_sections1_0Ba_
FNDA:0,_RNCNvMNtNtNtCs3mbXwXxPNJN_8devsweep3app4tabs8scan_tabNtNtB8_5state8DevSweep23render_category_sections2_0Ba_
FNDA:0,_RNCNvMNtNtNtCs3mbXwXxPNJN_8devsweep3app4tabs8scan_tabNtNtB8_5state8DevSweep23render_category_sections3_0Ba_
FNDA:0,_RNCNvMNtNtNtCs3mbXwXxPNJN_8devsweep3app4tabs8scan_tabNtNtB8_5state8DevSweep23render_category_sections4_0Ba_
FNDA:0,_RNCNvMNtNtNtCs3mbXwXxPNJN_8devsweep3app4tabs8scan_tabNtNtB8_5state8DevSweep23render_category_sections_0Ba_
FNDA:0,_RNvMNtNtNtCs3mbXwXxPNJN_8devsweep3app4tabs8scan_tabNtNtB6_5state8DevSweep11empty_state
FNDA:0,_RNvMNtNtNtCs3mbXwXxPNJN_8devsweep3app4tabs8scan_tabNtNtB6_5state8DevSweep15render_scan_tab
FNDA:0,_RNvMNtNtNtCs3mbXwXxPNJN_8devsweep3app4tabs8scan_tabNtNtB6_5state8DevSweep19render_cleanup_item
FNDA:0,_RNvMNtNtNtCs3mbXwXxPNJN_8devsweep3app4tabs8scan_tabNtNtB6_5state8DevSweep23render_category_section
FNF:41
FNH:0
DA:7,0
DA:8,0
DA:9,0
DA:10,0
DA:11,0
DA:12,0
DA:13,0
DA:14,0
DA:15,0
DA:17,0
DA:18,0
DA:19,0
DA:20,0
DA:21,0
DA:22,0
DA:24,0
DA:25,0
DA:26,0
DA:27,0
DA:28,0
DA:29,0
DA:30,0
DA:31,0
DA:32,0
DA:33,0
DA:34,0
DA:35,0
DA:36,0
DA:37,0
DA:38,0
DA:39,0
DA:40,0
DA:41,0
DA:42,0
DA:43,0
DA:45,0
DA:46,0
DA:47,0
DA:48,0
DA:49,0
DA:52,0
DA:53,0
DA:54,0
DA:55,0
DA:56,0
DA:57,0
DA:58,0
DA:59,0
DA:60,0
DA:61,0
DA:62,0
DA:63,0
DA:64,0
DA:65,0
DA:66,0
DA:67,0
DA:68,0
DA:69,0
DA:71,0
DA:75,0
DA:76,0
DA:77,0
DA:78,0
DA:79,0
DA:80,0
DA:81,0
DA:82,0
DA:83,0
DA:84,0
DA:85,0
DA:86,0
DA:87,0
DA:88,0
DA:89,0
DA:90,0
DA:91,0
DA:92,0
DA:93,0
DA:94,0
DA:95,0
DA:96,0
DA:97,0
DA:98,0
DA:99,0
DA:100,0
DA:101,0
DA:104,0
DA:105,0
DA:106,0
DA:107,0
DA:108,0
DA:109,0
DA:110,0
DA:111,0
DA:112,0
DA:113,0
DA:114,0
DA:115,0
DA:116,0
DA:117,0
DA:118,0
DA:119,0
DA:120,0
DA:121,0
DA:122,0
DA:123,0
DA:126,0
DA:130,0
DA:131,0
DA:132,0
DA:133,0
DA:134,0
DA:135,0
DA:136,0
DA:137,0
DA:138,0
DA:139,0
DA:140,0
DA:141,0
DA:142,0
DA:143,0
DA:144,0
DA:145,0
DA:146,0
DA:147,0
DA:148,0
DA:149,0
DA:150,0
DA:151,0
DA:152,0
DA:153,0
DA:155,0
DA:156,0
DA:157,0
DA:158,0
DA:159,0
DA:160,0
DA:163,0
DA:164,0
DA:165,0
DA:166,0
DA:167,0
DA:168,0
DA:169,0
DA:170,0
DA:171,0
DA:172,0
DA:174,0
DA:175,0
DA:176,0
DA:177,0
DA:178,0
DA:179,0
DA:180,0
DA:186,0
DA:187,0
DA:188,0
DA:189,0
DA:190,0
DA:191,0
DA:192,0
DA:193,0
DA:194,0
DA:195,0
DA:196,0
DA:197,0
DA:198,0
DA:199,0
DA:200,0
DA:201,0
DA:202,0
DA:203,0
DA:204,0
DA:205,0
DA:206,0
DA:207,0
DA:208,0
DA:209,0
DA:210,0
DA:211,0
DA:214,0
DA:215,0
DA:216,0
DA:217,0
DA:218,0
DA:219,0
DA:220,0
DA:221,0
DA:222,0
DA:223,0
DA:224,0
DA:225,0
DA:226,0
DA:227,0
DA:228,0
DA:229,0
DA:230,0
DA:231,0
DA:232,0
DA:233,0
DA:234,0
DA:237,0
DA:238,0
DA:239,0
DA:240,0
DA:241,0
DA:242,0
DA:243,0
DA:244,0
DA:245,0
DA:246,0
DA:247,0
DA:248,0
DA:249,0
DA:250,0
DA:251,0
DA:252,0
DA:253,0
DA:254,0
DA:255,0
DA:256,0
DA:257,0
DA:258,0
DA:259,0
DA:260,0
DA:263,0
DA:264,0
DA:265,0
DA:266,0
DA:267,0
DA:268,0
DA:269,0
DA:270,0
DA:271,0
DA:272,0
DA:273,0
DA:274,0
DA:275,0
DA:278,0
DA:282,0
DA:283,0
DA:284,0
DA:285,0
DA:286,0
DA:287,0
DA:288,0
DA:289,0
DA:291,0
DA:292,0
DA:293,0
DA:294,0
DA:295,0
DA:296,0
DA:297,0
DA:299,0
DA:300,0
DA:301,0
DA:302,0
DA:303,0
DA:305,0
DA:309,0
DA:311,0
DA:312,0
DA:313,0
DA:314,0
DA:315,0
DA:316,0
DA:317,0
DA:318,0
DA:319,0
DA:320,0
DA:321,0
DA:322,0
DA:323,0
DA:324,0
DA:325,0
DA:327,0
DA:329,0
DA:330,0
DA:331,0
DA:332,0
DA:333,0
DA:334,0
DA:335,0
DA:336,0
DA:338,0
DA:339,0
DA:340,0
DA:341,0
DA:342,0
DA:343,0
DA:345,0
DA:346,0
DA:347,0
DA:348,0
DA:349,0
DA:350,0
DA:351,0
DA:352,0
DA:353,0
DA:354,0
DA:355,0
DA:356,0
DA:357,0
DA:358,0
DA:359,0
DA:360,0
DA:361,0
DA:362,0
DA:363,0
DA:364,0
DA:365,0
DA:366,0
DA:369,0
DA:370,0
DA:371,0
DA:372,0
DA:373,0
DA:374,0
DA:375,0
DA:376,0
DA:377,0
DA:379,0
DA:381,0
DA:382,0
DA:384,0
DA:386,0
DA:387,0
DA:388,0
DA:389,0
DA:390,0
DA:391,0
DA:392,0
DA:393,0
DA:394,0
DA:395,0
DA:396,0
DA:397,0
DA:398,0
DA:399,0
DA:400,0
DA:402,0
DA:404,0
DA:405,0
DA:406,0
DA:407,0
DA:408,0
DA:409,0
DA:410,0
DA:412,0
DA:413,0
DA:414,0
DA:415,0
DA:416,0
DA:417,0
DA:418,0
DA:419,0
DA:420,0
DA:421,0
DA:422,0
DA:425,0
DA:426,0
DA:427,0
DA:428,0
DA:429,0
DA:430,0
DA:434,0
DA:435,0
DA:436,0
DA:437,0
DA:438,0
DA:439,0
DA:440,0
DA:441,0
DA:442,0
DA:443,0
DA:444,0
DA:445,0
DA:446,0
DA:447,0
DA:448,0
DA:449,0
DA:450,0
DA:451,0
DA:452,0
DA:454,0
DA:455,0
DA:457,0
DA:458,0
DA:459,0
DA:460,0
DA:461,0
DA:462,0
DA:463,0
DA:464,0
DA:465,0
DA:466,0
DA:468,0
DA:469,0
DA:470,0
DA:471,0
DA:472,0
DA:473,0
DA:474,0
DA:475,0
DA:476,0
DA:477,0
DA:478,0
DA:479,0
DA:480,0
DA:481,0
DA:482,0
DA:483,0
DA:484,0
DA:485,0
DA:487,0
DA:488,0
DA:489,0
DA:490,0
DA:491,0
DA:492,0
DA:493,0
DA:494,0
DA:496,0
DA:498,0
DA:499,0
DA:501,0
DA:503,0
DA:504,0
DA:505,0
DA:506,0
DA:507,0
DA:508,0
DA:509,0
DA:510,0
DA:511,0
DA:513,0
DA:516,0
DA:517,0
DA:518,0
DA:519,0
DA:520,0
DA:521,0
DA:522,0
DA:523,0
DA:524,0
DA:525,0
DA:526,0
DA:528,0
DA:529,0
DA:530,0
DA:531,0
DA:532,0
DA:533,0
DA:535,0
DA:538,0
DA:539,0
DA:540,0
DA:541,0
DA:542,0
DA:543,0
DA:544,0
DA:545,0
DA:546,0
DA:547,0
DA:548,0
DA:549,0
DA:552,0
DA:554,0
DA:555,0
DA:556,0
DA:557,0
DA:558,0
DA:559,0
DA:560,0
DA:561,0
DA:562,0
DA:563,0
DA:564,0
DA:565,0
DA:568,0
DA:570,0
DA:571,0
DA:572,0
DA:573,0
DA:574,0
DA:576,0
BRF:0
BRH:0
LF:524
LH:0
end_of_record
SF:/Users/canggih/Documents/Kedata/cleanstorage/dev-cleaner/src/app/tabs/settings_tab.rs
FN:40,_RNCNvMNtNtNtCshVE6m5yoyjE_8devsweep3app4tabs12settings_tabNtNtB8_5state8DevSweep19render_settings_tab0Ba_
FN:44,_RNCNvMNtNtNtCshVE6m5yoyjE_8devsweep3app4tabs12settings_tabNtNtB8_5state8DevSweep19render_settings_tabs0_0Ba_
FN:109,_RNCNvMNtNtNtCshVE6m5yoyjE_8devsweep3app4tabs12settings_tabNtNtB8_5state8DevSweep19render_settings_tabs1_0Ba_
FN:41,_RNCNvMNtNtNtCshVE6m5yoyjE_8devsweep3app4tabs12settings_tabNtNtB8_5state8DevSweep19render_settings_tabs_0Ba_
FN:150,_RNvMNtNtNtCshVE6m5yoyjE_8devsweep3app4tabs12settings_tabNtNtB6_5state8DevSweep18render_ttl_setting
FN:6,_RNvMNtNtNtCshVE6m5yoyjE_8devsweep3app4tabs12settings_tabNtNtB6_5state8DevSweep19render_settings_tab
FN:40,_RNCNvMNtNtNtCs3mbXwXxPNJN_8devsweep3app4tabs12settings_tabNtNtB8_5state8DevSweep19render_settings_tab0Ba_
FN:44,_RNCNvMNtNtNtCs3mbXwXxPNJN_8devsweep3app4tabs12settings_tabNtNtB8_5state8DevSweep19render_settings_tabs0_0Ba_
FN:109,_RNCNvMNtNtNtCs3mbXwXxPNJN_8devsweep3app4tabs12settings_tabNtNtB8_5state8DevSweep19render_settings_tabs1_0Ba_
FN:41,_RNCNvMNtNtNtCs3mbXwXxPNJN_8devsweep3app4tabs12settings_tabNtNtB8_5state8DevSweep19render_settings_tabs_0Ba_
FN:150,_RNvMNtNtNtCs3mbXwXxPNJN_8devsweep3app4tabs12settings_tabNtNtB6_5state8DevSweep18render_ttl_setting
FN:6,_RNvMNtNtNtCs3mbXwXxPNJN_8devsweep3app4tabs12settings_tabNtNtB6_5state8DevSweep19render_settings_tab
FNDA:0,_RNCNvMNtNtNtCshVE6m5yoyjE_8devsweep3app4tabs12settings_tabNtNtB8_5state8DevSweep19render_settings_tab0Ba_
FNDA:0,_RNCNvMNtNtNtCshVE6m5yoyjE_8devsweep3app4tabs12settings_tabNtNtB8_5state8DevSweep19render_settings_tabs0_0Ba_
FNDA:0,_RNCNvMNtNtNtCshVE6m5yoyjE_8devsweep3app4tabs12settings_tabNtNtB8_5state8DevSweep19render_settings_tabs1_0Ba_
FNDA:0,_RNCNvMNtNtNtCshVE6m5yoyjE_8devsweep3app4tabs12settings_tabNtNtB8_5state8DevSweep19render_settings_tabs_0Ba_
FNDA:0,_RNvMNtNtNtCshVE6m5yoyjE_8devsweep3app4tabs12settings_tabNtNtB6_5state8DevSweep18render_ttl_setting
FNDA:0,_RNvMNtNtNtCshVE6m5yoyjE_8devsweep3app4tabs12settings_tabNtNtB6_5state8DevSweep19render_settings_tab
FNDA:0,_RNCNvMNtNtNtCs3mbXwXxPNJN_8devsweep3app4tabs12settings_tabNtNtB8_5state8DevSweep19render_settings_tab0Ba_
FNDA:0,_RNCNvMNtNtNtCs3mbXwXxPNJN_8devsweep3app4tabs12settings_tabNtNtB8_5state8DevSweep19render_settings_tabs0_0Ba_
FNDA:0,_RNCNvMNtNtNtCs3mbXwXxPNJN_8devsweep3app4tabs12settings_tabNtNtB8_5state8DevSweep19render_settings_tabs1_0Ba_
FNDA:0,_RNCNvMNtNtNtCs3mbXwXxPNJN_8devsweep3app4tabs12settings_tabNtNtB8_5state8DevSweep19render_settings_tabs_0Ba_
FNDA:0,_RNvMNtNtNtCs3mbXwXxPNJN_8devsweep3app4tabs12settings_tabNtNtB6_5state8DevSweep18render_ttl_setting
FNDA:0,_RNvMNtNtNtCs3mbXwXxPNJN_8devsweep3app4tabs12settings_tabNtNtB6_5state8DevSweep19render_settings_tab
FNF:6
FNH:0
DA:6,0
DA:7,0
DA:9,0
DA:10,0
DA:11,0
DA:12,0
DA:13,0
DA:14,0
DA:16,0
DA:17,0
DA:18,0
DA:19,0
DA:20,0
DA:21,0
DA:22,0
DA:23,0
DA:24,0
DA:25,0
DA:26,0
DA:27,0
DA:28,0
DA:29,0
DA:30,0
DA:32,0
DA:33,0
DA:34,0
DA:35,0
DA:36,0
DA:37,0
DA:38,0
DA:39,0
DA:40,0
DA:41,0
DA:42,0
DA:43,0
DA:44,0
DA:45,0
DA:46,0
DA:47,0
DA:48,0
DA:49,0
DA:50,0
DA:51,0
DA:52,0
DA:57,0
DA:58,0
DA:59,0
DA:60,0
DA:61,0
DA:62,0
DA:63,0
DA:64,0
DA:65,0
DA:66,0
DA:67,0
DA:68,0
DA:69,0
DA:71,0
DA:72,0
DA:73,0
DA:74,0
DA:75,0
DA:76,0
DA:77,0
DA:78,0
DA:79,0
DA:80,0
DA:81,0
DA:82,0
DA:83,0
DA:84,0
DA:85,0
DA:86,0
DA:87,0
DA:89,0
DA:90,0
DA:91,0
DA:92,0
DA:93,0
DA:97,0
DA:98,0
DA:99,0
DA:100,0
DA:101,0
DA:102,0
DA:103,0
DA:104,0
DA:105,0
DA:106,0
DA:107,0
DA:108,0
DA:109,0
DA:114,0
DA:115,0
DA:116,0
DA:117,0
DA:118,0
DA:119,0
DA:120,0
DA:121,0
DA:122,0
DA:123,0
DA:124,0
DA:125,0
DA:126,0
DA:127,0
DA:128,0
DA:129,0
DA:130,0
DA:131,0
DA:132,0
DA:133,0
DA:134,0
DA:135,0
DA:136,0
DA:139,0
DA:140,0
DA:141,0
DA:142,0
DA:143,0
DA:148,0
DA:150,0
DA:151,0
DA:152,0
DA:153,0
DA:154,0
DA:156,0
DA:159,0
DA:160,0
DA:161,0
DA:162,0
DA:163,0
DA:164,0
DA:165,0
DA:166,0
DA:167,0
DA:168,0
DA:169,0
DA:170,0
DA:171,0
DA:172,0
DA:173,0
DA:175,0
DA:176,0
DA:177,0
DA:178,0
DA:179,0
DA:180,0
DA:181,0
DA:182,0
DA:183,0
DA:184,0
DA:185,0
DA:186,0
DA:187,0
DA:188,0
DA:189,0
DA:190,0
DA:191,0
DA:194,0
BRF:0
BRH:0
LF:164
LH:0
end_of_record
SF:/Users/canggih/Documents/Kedata/cleanstorage/dev-cleaner/src/assets.rs
FN:14,_RNvMNtCshVE6m5yoyjE_8devsweep6assetsNtB2_6Assets8get_icon
FN:7,_RNvMs0_NtCshVE6m5yoyjE_8devsweep6assetsNtB5_6Assets3get
FN:37,_RNvXs_NtCshVE6m5yoyjE_8devsweep6assetsNtB4_6AssetsNtNtCs7iYqt2tyMRL_4gpui6assets11AssetSource4list
FN:30,_RNvXs_NtCshVE6m5yoyjE_8devsweep6assetsNtB4_6AssetsNtNtCs7iYqt2tyMRL_4gpui6assets11AssetSource4load
FN:39,_RNCNvXs_NtCshVE6m5yoyjE_8devsweep6assetsNtB6_6AssetsNtNtCs7iYqt2tyMRL_4gpui6assets11AssetSource4list0B8_
FN:40,_RNCNvXs_NtCshVE6m5yoyjE_8devsweep6assetsNtB6_6AssetsNtNtCs7iYqt2tyMRL_4gpui6assets11AssetSource4lists_0B8_
FN:39,_RNCNvXs_NtCs3mbXwXxPNJN_8devsweep6assetsNtB6_6AssetsNtNtCs7iYqt2tyMRL_4gpui6assets11AssetSource4list0B8_
FN:40,_RNCNvXs_NtCs3mbXwXxPNJN_8devsweep6assetsNtB6_6AssetsNtNtCs7iYqt2tyMRL_4gpui6assets11AssetSource4lists_0B8_
FN:14,_RNvMNtCs3mbXwXxPNJN_8devsweep6assetsNtB2_6Assets8get_icon
FN:7,_RNvMs0_NtCs3mbXwXxPNJN_8devsweep6assetsNtB5_6Assets3get
FN:37,_RNvXs_NtCs3mbXwXxPNJN_8devsweep6assetsNtB4_6AssetsNtNtCs7iYqt2tyMRL_4gpui6assets11AssetSource4list
FN:30,_RNvXs_NtCs3mbXwXxPNJN_8devsweep6assetsNtB4_6AssetsNtNtCs7iYqt2tyMRL_4gpui6assets11AssetSource4load
FNDA:0,_RNvMNtCshVE6m5yoyjE_8devsweep6assetsNtB2_6Assets8get_icon
FNDA:0,_RNvMs0_NtCshVE6m5yoyjE_8devsweep6assetsNtB5_6Assets3get
FNDA:0,_RNvXs_NtCshVE6m5yoyjE_8devsweep6assetsNtB4_6AssetsNtNtCs7iYqt2tyMRL_4gpui6assets11AssetSource4list
FNDA:0,_RNvXs_NtCshVE6m5yoyjE_8devsweep6assetsNtB4_6AssetsNtNtCs7iYqt2tyMRL_4gpui6assets11AssetSource4load
FNDA:0,_RNCNvXs_NtCshVE6m5yoyjE_8devsweep6assetsNtB6_6AssetsNtNtCs7iYqt2tyMRL_4gpui6assets11AssetSource4list0B8_
FNDA:0,_RNCNvXs_NtCshVE6m5yoyjE_8devsweep6assetsNtB6_6AssetsNtNtCs7iYqt2tyMRL_4gpui6assets11AssetSource4lists_0B8_
FNDA:0,_RNCNvXs_NtCs3mbXwXxPNJN_8devsweep6assetsNtB6_6AssetsNtNtCs7iYqt2tyMRL_4gpui6assets11AssetSource4list0B8_
FNDA:0,_RNCNvXs_NtCs3mbXwXxPNJN_8devsweep6assetsNtB6_6AssetsNtNtCs7iYqt2tyMRL_4gpui6assets11AssetSource4lists_0B8_
FNDA:0,_RNvMNtCs3mbXwXxPNJN_8devsweep6assetsNtB2_6Assets8get_icon
FNDA:0,_RNvMs0_NtCs3mbXwXxPNJN_8devsweep6assetsNtB5_6Assets3get
FNDA:0,_RNvXs_NtCs3mbXwXxPNJN_8devsweep6assetsNtB4_6AssetsNtNtCs7iYqt2tyMRL_4gpui6assets11AssetSource4list
FNDA:0,_RNvXs_NtCs3mbXwXxPNJN_8devsweep6assetsNtB4_6AssetsNtNtCs7iYqt2tyMRL_4gpui6assets11AssetSource4load
FNF:6
FNH:0
DA:7,0
DA:14,0
DA:15,0
DA:16,0
DA:17,0
DA:20,0
DA:21,0
DA:22,0
DA:24,0
DA:25,0
DA:26,0
DA:30,0
DA:31,0
DA:32,0
DA:33,0
DA:35,0
DA:37,0
DA:38,0
DA:39,0
DA:40,0
DA:41,0
DA:42,0
BRF:0
BRH:0
LF:24
LH:0
end_of_record
SF:/Users/canggih/Documents/Kedata/cleanstorage/dev-cleaner/src/backend.rs
FN:26,_RNvMNtCshVE6m5yoyjE_8devsweep7backendNtB2_12CategoryData3new
FN:344,_RNvMs_NtCshVE6m5yoyjE_8devsweep7backendNtB4_14StorageBackend11delete_path
FN:363,_RNvMs_NtCshVE6m5yoyjE_8devsweep7backendNtB4_14StorageBackend11empty_trash
FN:285,_RNvMs_NtCshVE6m5yoyjE_8devsweep7backendNtB4_14StorageBackend12undo_cleanup
FN:425,_RNvMs_NtCshVE6m5yoyjE_8devsweep7backendNtB4_14StorageBackend13get_all_items
FN:162,_RNvMs_NtCshVE6m5yoyjE_8devsweep7backendNtB4_14StorageBackend15execute_cleanup
FN:54,_RNvMs_NtCshVE6m5yoyjE_8devsweep7backendNtB4_14StorageBackend15scan_with_cache
FN:314,_RNvMs_NtCshVE6m5yoyjE_8devsweep7backendNtB4_14StorageBackend18get_all_cache_ttls
FN:324,_RNvMs_NtCshVE6m5yoyjE_8devsweep7backendNtB4_14StorageBackend18reset_cache_config
FN:441,_RNvMs_NtCshVE6m5yoyjE_8devsweep7backendNtB4_14StorageBackend20clear_all_quarantine
FN:463,_RNvMs_NtCshVE6m5yoyjE_8devsweep7backendNtB4_14StorageBackend20get_quarantine_stats
FN:330,_RNvMs_NtCshVE6m5yoyjE_8devsweep7backendNtB4_14StorageBackend21execute_shell_command
FN:158,_RNvMs_NtCshVE6m5yoyjE_8devsweep7backendNtB4_14StorageBackend21get_total_reclaimable
FN:453,_RNvMs_NtCshVE6m5yoyjE_8devsweep7backendNtB4_14StorageBackend22delete_quarantine_item
FN:417,_RNvMs_NtCshVE6m5yoyjE_8devsweep7backendNtB4_14StorageBackend22get_items_for_category
FN:436,_RNvMs_NtCshVE6m5yoyjE_8devsweep7backendNtB4_14StorageBackend22get_quarantine_records
FN:306,_RNvMs_NtCshVE6m5yoyjE_8devsweep7backendNtB4_14StorageBackend26invalidate_cache_for_items
FN:174,_RNvMs_NtCshVE6m5yoyjE_8devsweep7backendNtB4_14StorageBackend28execute_cleanup_with_history
FN:45,_RNvMs_NtCshVE6m5yoyjE_8devsweep7backendNtB4_14StorageBackend3new
FN:469,_RNvXs0_NtCshVE6m5yoyjE_8devsweep7backendNtB5_14StorageBackendNtNtCskzPJi2J8k3N_4core7default7Default7default
FN:355,_RNCNvMs_NtCshVE6m5yoyjE_8devsweep7backendNtB6_14StorageBackend11delete_path0B8_
FN:358,_RNCNvMs_NtCshVE6m5yoyjE_8devsweep7backendNtB6_14StorageBackend11delete_paths_0B8_
FN:367,_RNCNvMs_NtCshVE6m5yoyjE_8devsweep7backendNtB6_14StorageBackend11empty_trash0B8_
FN:377,_RNCNvMs_NtCshVE6m5yoyjE_8devsweep7backendNtB6_14StorageBackend11empty_trashs_0B8_
FN:83,_RNCNvMs_NtCshVE6m5yoyjE_8devsweep7backendNtB6_14StorageBackend15scan_with_cache0B8_
FN:108,_RNCNvMs_NtCshVE6m5yoyjE_8devsweep7backendNtB6_14StorageBackend15scan_with_caches_0B8_
FN:319,_RNCNvMs_NtCshVE6m5yoyjE_8devsweep7backendNtB6_14StorageBackend18get_all_cache_ttls0B8_
FN:335,_RNCNvMs_NtCshVE6m5yoyjE_8devsweep7backendNtB6_14StorageBackend21execute_shell_command0B8_
FN:420,_RNCNvMs_NtCshVE6m5yoyjE_8devsweep7backendNtB6_14StorageBackend22get_items_for_category0B8_
FN:355,_RNCNvMs_NtCs3mbXwXxPNJN_8devsweep7backendNtB6_14StorageBackend11delete_path0B8_
FN:358,_RNCNvMs_NtCs3mbXwXxPNJN_8devsweep7backendNtB6_14StorageBackend11delete_paths_0B8_
FN:367,_RNCNvMs_NtCs3mbXwXxPNJN_8devsweep7backendNtB6_14StorageBackend11empty_trash0B8_
FN:377,_RNCNvMs_NtCs3mbXwXxPNJN_8devsweep7backendNtB6_14StorageBackend11empty_trashs_0B8_
FN:83,_RNCNvMs_NtCs3mbXwXxPNJN_8devsweep7backendNtB6_14StorageBackend15scan_with_cache0B8_
FN:108,_RNCNvMs_NtCs3mbXwXxPNJN_8devsweep7backendNtB6_14StorageBackend15scan_with_caches_0B8_
FN:319,_RNCNvMs_NtCs3mbXwXxPNJN_8devsweep7backendNtB6_14StorageBackend18get_all_cache_ttls0B8_
FN:335,_RNCNvMs_NtCs3mbXwXxPNJN_8devsweep7backendNtB6_14StorageBackend21execute_shell_command0B8_
FN:420,_RNCNvMs_NtCs3mbXwXxPNJN_8devsweep7backendNtB6_14StorageBackend22get_items_for_category0B8_
FN:26,_RNvMNtCs3mbXwXxPNJN_8devsweep7backendNtB2_12CategoryData3new
FN:344,_RNvMs_NtCs3mbXwXxPNJN_8devsweep7backendNtB4_14StorageBackend11delete_path
FN:363,_RNvMs_NtCs3mbXwXxPNJN_8devsweep7backendNtB4_14StorageBackend11empty_trash
FN:285,_RNvMs_NtCs3mbXwXxPNJN_8devsweep7backendNtB4_14StorageBackend12undo_cleanup
FN:425,_RNvMs_NtCs3mbXwXxPNJN_8devsweep7backendNtB4_14StorageBackend13get_all_items
FN:162,_RNvMs_NtCs3mbXwXxPNJN_8devsweep7backendNtB4_14StorageBackend15execute_cleanup
FN:54,_RNvMs_NtCs3mbXwXxPNJN_8devsweep7backendNtB4_14StorageBackend15scan_with_cache
FN:314,_RNvMs_NtCs3mbXwXxPNJN_8devsweep7backendNtB4_14StorageBackend18get_all_cache_ttls
FN:324,_RNvMs_NtCs3mbXwXxPNJN_8devsweep7backendNtB4_14StorageBackend18reset_cache_config
FN:441,_RNvMs_NtCs3mbXwXxPNJN_8devsweep7backendNtB4_14StorageBackend20clear_all_quarantine
FN:463,_RNvMs_NtCs3mbXwXxPNJN_8devsweep7backendNtB4_14StorageBackend20get_quarantine_stats
FN:330,_RNvMs_NtCs3mbXwXxPNJN_8devsweep7backendNtB4_14StorageBackend21execute_shell_command
FN:158,_RNvMs_NtCs3mbXwXxPNJN_8devsweep7backendNtB4_14StorageBackend21get_total_reclaimable
FN:453,_RNvMs_NtCs3mbXwXxPNJN_8devsweep7backendNtB4_14StorageBackend22delete_quarantine_item
FN:417,_RNvMs_NtCs3mbXwXxPNJN_8devsweep7backendNtB4_14StorageBackend22get_items_for_category
FN:436,_RNvMs_NtCs3mbXwXxPNJN_8devsweep7backendNtB4_14StorageBackend22get_quarantine_records
FN:306,_RNvMs_NtCs3mbXwXxPNJN_8devsweep7backendNtB4_14StorageBackend26invalidate_cache_for_items
FN:174,_RNvMs_NtCs3mbXwXxPNJN_8devsweep7backendNtB4_14StorageBackend28execute_cleanup_with_history
FN:45,_RNvMs_NtCs3mbXwXxPNJN_8devsweep7backendNtB4_14StorageBackend3new
FN:469,_RNvXs0_NtCs3mbXwXxPNJN_8devsweep7backendNtB5_14StorageBackendNtNtCskzPJi2J8k3N_4core7default7Default7default
FNDA:186,_RNvMNtCshVE6m5yoyjE_8devsweep7backendNtB2_12CategoryData3new
FNDA:6,_RNvMs_NtCshVE6m5yoyjE_8devsweep7backendNtB4_14StorageBackend11delete_path
FNDA:0,_RNvMs_NtCshVE6m5yoyjE_8devsweep7backendNtB4_14StorageBackend11empty_trash
FNDA:0,_RNvMs_NtCshVE6m5yoyjE_8devsweep7backendNtB4_14StorageBackend12undo_cleanup
FNDA:1,_RNvMs_NtCshVE6m5yoyjE_8devsweep7backendNtB4_14StorageBackend13get_all_items
FNDA:6,_RNvMs_NtCshVE6m5yoyjE_8devsweep7backendNtB4_14StorageBackend15execute_cleanup
FNDA:11,_RNvMs_NtCshVE6m5yoyjE_8devsweep7backendNtB4_14StorageBackend15scan_with_cache
FNDA:2,_RNvMs_NtCshVE6m5yoyjE_8devsweep7backendNtB4_14StorageBackend18get_all_cache_ttls
FNDA:1,_RNvMs_NtCshVE6m5yoyjE_8devsweep7backendNtB4_14StorageBackend18reset_cache_config
FNDA:0,_RNvMs_NtCshVE6m5yoyjE_8devsweep7backendNtB4_14StorageBackend20clear_all_quarantine
FNDA:2,_RNvMs_NtCshVE6m5yoyjE_8devsweep7backendNtB4_14StorageBackend20get_quarantine_stats
FNDA:0,_RNvMs_NtCshVE6m5yoyjE_8devsweep7backendNtB4_14StorageBackend21execute_shell_command
FNDA:6,_RNvMs_NtCshVE6m5yoyjE_8devsweep7backendNtB4_14StorageBackend21get_total_reclaimable
FNDA:0,_RNvMs_NtCshVE6m5yoyjE_8devsweep7backendNtB4_14StorageBackend22delete_quarantine_item
FNDA:4,_RNvMs_NtCshVE6m5yoyjE_8devsweep7backendNtB4_14StorageBackend22get_items_for_category
FNDA:2,_RNvMs_NtCshVE6m5yoyjE_8devsweep7backendNtB4_14StorageBackend22get_quarantine_records
FNDA:0,_RNvMs_NtCshVE6m5yoyjE_8devsweep7backendNtB4_14StorageBackend26invalidate_cache_for_items
FNDA:0,_RNvMs_NtCshVE6m5yoyjE_8devsweep7backendNtB4_14StorageBackend28execute_cleanup_with_history
FNDA:25,_RNvMs_NtCshVE6m5yoyjE_8devsweep7backendNtB4_14StorageBackend3new
FNDA:1,_RNvXs0_NtCshVE6m5yoyjE_8devsweep7backendNtB5_14StorageBackendNtNtCskzPJi2J8k3N_4core7default7Default7default
FNDA:0,_RNCNvMs_NtCshVE6m5yoyjE_8devsweep7backendNtB6_14StorageBackend11delete_path0B8_
FNDA:0,_RNCNvMs_NtCshVE6m5yoyjE_8devsweep7backendNtB6_14StorageBackend11delete_paths_0B8_
FNDA:0,_RNCNvMs_NtCshVE6m5yoyjE_8devsweep7backendNtB6_14StorageBackend11empty_trash0B8_
FNDA:0,_RNCNvMs_NtCshVE6m5yoyjE_8devsweep7backendNtB6_14StorageBackend11empty_trashs_0B8_
FNDA:48,_RNCNvMs_NtCshVE6m5yoyjE_8devsweep7backendNtB6_14StorageBackend15scan_with_cache0B8_
FNDA:128,_RNCNvMs_NtCshVE6m5yoyjE_8devsweep7backendNtB6_14StorageBackend15scan_with_caches_0B8_
FNDA:27,_RNCNvMs_NtCshVE6m5yoyjE_8devsweep7backendNtB6_14StorageBackend18get_all_cache_ttls0B8_
FNDA:0,_RNCNvMs_NtCshVE6m5yoyjE_8devsweep7backendNtB6_14StorageBackend21execute_shell_command0B8_
FNDA:3,_RNCNvMs_NtCshVE6m5yoyjE_8devsweep7backendNtB6_14StorageBackend22get_items_for_category0B8_
FNDA:0,_RNCNvMs_NtCs3mbXwXxPNJN_8devsweep7backendNtB6_14StorageBackend11delete_path0B8_
FNDA:0,_RNCNvMs_NtCs3mbXwXxPNJN_8devsweep7backendNtB6_14StorageBackend11delete_paths_0B8_
FNDA:0,_RNCNvMs_NtCs3mbXwXxPNJN_8devsweep7backendNtB6_14StorageBackend11empty_trash0B8_
FNDA:0,_RNCNvMs_NtCs3mbXwXxPNJN_8devsweep7backendNtB6_14StorageBackend11empty_trashs_0B8_
FNDA:0,_RNCNvMs_NtCs3mbXwXxPNJN_8devsweep7backendNtB6_14StorageBackend15scan_with_cache0B8_
FNDA:0,_RNCNvMs_NtCs3mbXwXxPNJN_8devsweep7backendNtB6_14StorageBackend15scan_with_caches_0B8_
FNDA:0,_RNCNvMs_NtCs3mbXwXxPNJN_8devsweep7backendNtB6_14StorageBackend18get_all_cache_ttls0B8_
FNDA:0,_RNCNvMs_NtCs3mbXwXxPNJN_8devsweep7backendNtB6_14StorageBackend21execute_shell_command0B8_
FNDA:0,_RNCNvMs_NtCs3mbXwXxPNJN_8devsweep7backendNtB6_14StorageBackend22get_items_for_category0B8_
FNDA:0,_RNvMNtCs3mbXwXxPNJN_8devsweep7backendNtB2_12CategoryData3new
FNDA:0,_RNvMs_NtCs3mbXwXxPNJN_8devsweep7backendNtB4_14StorageBackend11delete_path
FNDA:0,_RNvMs_NtCs3mbXwXxPNJN_8devsweep7backendNtB4_14StorageBackend11empty_trash
FNDA:0,_RNvMs_NtCs3mbXwXxPNJN_8devsweep7backendNtB4_14StorageBackend12undo_cleanup
FNDA:0,_RNvMs_NtCs3mbXwXxPNJN_8devsweep7backendNtB4_14StorageBackend13get_all_items
FNDA:0,_RNvMs_NtCs3mbXwXxPNJN_8devsweep7backendNtB4_14StorageBackend15execute_cleanup
FNDA:0,_RNvMs_NtCs3mbXwXxPNJN_8devsweep7backendNtB4_14StorageBackend15scan_with_cache
FNDA:0,_RNvMs_NtCs3mbXwXxPNJN_8devsweep7backendNtB4_14StorageBackend18get_all_cache_ttls
FNDA:0,_RNvMs_NtCs3mbXwXxPNJN_8devsweep7backendNtB4_14StorageBackend18reset_cache_config
FNDA:0,_RNvMs_NtCs3mbXwXxPNJN_8devsweep7backendNtB4_14StorageBackend20clear_all_quarantine
FNDA:0,_RNvMs_NtCs3mbXwXxPNJN_8devsweep7backendNtB4_14StorageBackend20get_quarantine_stats
FNDA:0,_RNvMs_NtCs3mbXwXxPNJN_8devsweep7backendNtB4_14StorageBackend21execute_shell_command
FNDA:0,_RNvMs_NtCs3mbXwXxPNJN_8devsweep7backendNtB4_14StorageBackend21get_total_reclaimable
FNDA:0,_RNvMs_NtCs3mbXwXxPNJN_8devsweep7backendNtB4_14StorageBackend22delete_quarantine_item
FNDA:0,_RNvMs_NtCs3mbXwXxPNJN_8devsweep7backendNtB4_14StorageBackend22get_items_for_category
FNDA:0,_RNvMs_NtCs3mbXwXxPNJN_8devsweep7backendNtB4_14StorageBackend22get_quarantine_records
FNDA:0,_RNvMs_NtCs3mbXwXxPNJN_8devsweep7backendNtB4_14StorageBackend26invalidate_cache_for_items
FNDA:0,_RNvMs_NtCs3mbXwXxPNJN_8devsweep7backendNtB4_14StorageBackend28execute_cleanup_with_history
FNDA:0,_RNvMs_NtCs3mbXwXxPNJN_8devsweep7backendNtB4_14StorageBackend3new
FNDA:0,_RNvXs0_NtCs3mbXwXxPNJN_8devsweep7backendNtB5_14StorageBackendNtNtCskzPJi2J8k3N_4core7default7Default7default
FNF:29
FNH:17
DA:26,186
DA:27,186
DA:28,186
DA:29,186
DA:30,186
DA:31,186
DA:32,186
DA:33,186
DA:34,186
DA:35,186
DA:45,25
DA:46,25
DA:47,25
DA:48,25
DA:49,25
DA:50,25
DA:51,25
DA:54,11
DA:56,11
DA:57,11
DA:58,11
DA:59,11
DA:60,11
DA:61,11
DA:62,11
DA:63,11
DA:64,11
DA:65,11
DA:66,11
DA:67,11
DA:68,11
DA:69,11
DA:70,11
DA:71,11
DA:72,11
DA:75,11
DA:77,11
DA:80,11
DA:81,3
DA:82,3
DA:83,48
DA:87,48
DA:88,48
DA:89,3
DA:90,3
DA:92,8
DA:95,11
DA:96,3
DA:98,8
DA:101,11
DA:102,3
DA:103,8
DA:106,11
DA:107,11
DA:108,128
DA:109,128
DA:112,128
DA:113,408
DA:114,280
DA:115,248
DA:116,248
DA:119,128
DA:120,128
DA:121,11
DA:124,11
DA:127,187
DA:128,176
DA:129,128
DA:130,128
DA:131,128
DA:132,128
DA:133,128
DA:134,128
DA:135,128
DA:136,128
DA:137,128
DA:138,128
DA:139,128
DA:140,128
DA:141,128
DA:143,48
DA:144,48
DA:145,48
DA:146,48
DA:147,48
DA:148,48
DA:149,0
DA:153,11
DA:155,11
DA:156,11
DA:158,6
DA:159,6
DA:160,6
DA:162,6
DA:164,6
DA:165,0
DA:166,6
DA:167,6
DA:169,0
DA:171,6
DA:174,0
DA:175,0
DA:176,0
DA:177,0
DA:178,0
DA:179,0
DA:180,0
DA:181,0
DA:182,0
DA:183,0
DA:184,0
DA:187,0
DA:188,0
DA:189,0
DA:190,0
DA:192,0
DA:194,0
DA:198,0
DA:201,0
DA:204,0
DA:206,0
DA:207,0
DA:208,0
DA:209,0
DA:210,0
DA:212,0
DA:213,0
DA:214,0
DA:215,0
DA:216,0
DA:217,0
DA:220,0
DA:222,0
DA:223,0
DA:224,0
DA:225,0
DA:226,0
DA:228,0
DA:229,0
DA:230,0
DA:231,0
DA:232,0
DA:233,0
DA:238,0
DA:239,0
DA:240,0
DA:241,0
DA:242,0
DA:244,0
DA:245,0
DA:246,0
DA:247,0
DA:248,0
DA:249,0
DA:254,0
DA:255,0
DA:256,0
DA:261,0
DA:262,0
DA:265,0
DA:267,0
DA:268,0
DA:271,0
DA:272,0
DA:273,0
DA:274,0
DA:275,0
DA:276,0
DA:277,0
DA:278,0
DA:279,0
DA:280,0
DA:282,0
DA:285,0
DA:286,0
DA:289,0
DA:290,0
DA:292,0
DA:293,0
DA:294,0
DA:295,0
DA:296,0
DA:298,0
DA:299,0
DA:300,0
DA:301,0
DA:303,0
DA:306,0
DA:309,0
DA:310,0
DA:311,0
DA:314,2
DA:315,2
DA:316,2
DA:317,2
DA:318,2
DA:319,27
DA:320,2
DA:321,2
DA:324,1
DA:326,1
DA:327,1
DA:328,1
DA:330,0
DA:331,0
DA:332,0
DA:333,0
DA:334,0
DA:335,0
DA:337,0
DA:338,0
DA:340,0
DA:342,0
DA:344,6
DA:345,6
DA:346,2
DA:347,4
DA:350,4
DA:351,0
DA:352,4
DA:354,4
DA:355,1
DA:356,1
DA:358,3
DA:359,3
DA:361,6
DA:363,0
DA:366,0
DA:367,0
DA:369,0
DA:371,0
DA:372,0
DA:373,0
DA:376,0
DA:377,0
DA:379,0
DA:380,0
DA:382,0
DA:383,0
DA:384,0
DA:385,0
DA:386,0
DA:387,0
DA:389,0
DA:392,0
DA:393,0
DA:394,0
DA:397,0
DA:401,0
DA:402,0
DA:403,0
DA:404,0
DA:405,0
DA:406,0
DA:407,0
DA:409,0
DA:410,0
DA:411,0
DA:412,0
DA:414,0
DA:417,4
DA:418,4
DA:419,4
DA:420,4
DA:421,4
DA:422,4
DA:425,1
DA:426,1
DA:427,3
DA:428,5
DA:429,3
DA:430,3
DA:432,1
DA:433,1
DA:436,2
DA:437,2
DA:438,2
DA:441,0
DA:442,0
DA:444,0
DA:446,0
DA:447,0
DA:448,0
DA:449,0
DA:450,0
DA:453,0
DA:454,0
DA:455,0
DA:456,0
DA:457,0
DA:458,0
DA:459,0
DA:460,0
DA:463,2
DA:464,2
DA:465,2
DA:469,1
DA:470,1
DA:471,1
BRF:0
BRH:0
LF:308
LH:148
end_of_record
SF:/Users/canggih/Documents/Kedata/cleanstorage/dev-cleaner/src/cache_settings.rs
FN:122,_RNvMNtCs3mbXwXxPNJN_8devsweep14cache_settingsNtB2_13CacheSettings12apply_preset
FN:11,_RNvMNtCs3mbXwXxPNJN_8devsweep14cache_settingsNtB2_13CacheSettings12get_all_ttls
FN:139,_RNvMNtCs3mbXwXxPNJN_8devsweep14cache_settingsNtB2_13CacheSettings13example_usage
FN:16,_RNvMNtCs3mbXwXxPNJN_8devsweep14cache_settingsNtB2_13CacheSettings14print_settings
FN:55,_RNvMNtCs3mbXwXxPNJN_8devsweep14cache_settingsNtB2_13CacheSettings17reset_to_defaults
FN:45,_RNvMNtCs3mbXwXxPNJN_8devsweep14cache_settingsNtB2_13CacheSettings7set_ttl
FN:30,_RNvMNtCs3mbXwXxPNJN_8devsweep14cache_settingsNtB2_13CacheSettings10format_ttl
FN:61,_RNvMNtCs3mbXwXxPNJN_8devsweep14cache_settingsNtB2_13CacheSettings11get_presets
FN:219,_RNvNtNtCs3mbXwXxPNJN_8devsweep14cache_settings5testss_15test_format_ttl
FN:228,_RNvNtNtCs3mbXwXxPNJN_8devsweep14cache_settings5testss_18test_presets_exist
FN:236,_RNvNtNtCs3mbXwXxPNJN_8devsweep14cache_settings5testss_22test_trash_always_zero
FN:241,_RNCNvNtNtCs3mbXwXxPNJN_8devsweep14cache_settings5testss_22test_trash_always_zero0B7_
FN:30,_RNvMNtCshVE6m5yoyjE_8devsweep14cache_settingsNtB2_13CacheSettings10format_ttl
FN:61,_RNvMNtCshVE6m5yoyjE_8devsweep14cache_settingsNtB2_13CacheSettings11get_presets
FN:122,_RNvMNtCshVE6m5yoyjE_8devsweep14cache_settingsNtB2_13CacheSettings12apply_preset
FN:11,_RNvMNtCshVE6m5yoyjE_8devsweep14cache_settingsNtB2_13CacheSettings12get_all_ttls
FN:139,_RNvMNtCshVE6m5yoyjE_8devsweep14cache_settingsNtB2_13CacheSettings13example_usage
FN:16,_RNvMNtCshVE6m5yoyjE_8devsweep14cache_settingsNtB2_13CacheSettings14print_settings
FN:55,_RNvMNtCshVE6m5yoyjE_8devsweep14cache_settingsNtB2_13CacheSettings17reset_to_defaults
FN:45,_RNvMNtCshVE6m5yoyjE_8devsweep14cache_settingsNtB2_13CacheSettings7set_ttl
FNDA:0,_RNvMNtCs3mbXwXxPNJN_8devsweep14cache_settingsNtB2_13CacheSettings12apply_preset
FNDA:0,_RNvMNtCs3mbXwXxPNJN_8devsweep14cache_settingsNtB2_13CacheSettings12get_all_ttls
FNDA:0,_RNvMNtCs3mbXwXxPNJN_8devsweep14cache_settingsNtB2_13CacheSettings13example_usage
FNDA:0,_RNvMNtCs3mbXwXxPNJN_8devsweep14cache_settingsNtB2_13CacheSettings14print_settings
FNDA:0,_RNvMNtCs3mbXwXxPNJN_8devsweep14cache_settingsNtB2_13CacheSettings17reset_to_defaults
FNDA:0,_RNvMNtCs3mbXwXxPNJN_8devsweep14cache_settingsNtB2_13CacheSettings7set_ttl
FNDA:5,_RNvMNtCs3mbXwXxPNJN_8devsweep14cache_settingsNtB2_13CacheSettings10format_ttl
FNDA:2,_RNvMNtCs3mbXwXxPNJN_8devsweep14cache_settingsNtB2_13CacheSettings11get_presets
FNDA:1,_RNvNtNtCs3mbXwXxPNJN_8devsweep14cache_settings5testss_15test_format_ttl
FNDA:1,_RNvNtNtCs3mbXwXxPNJN_8devsweep14cache_settings5testss_18test_presets_exist
FNDA:1,_RNvNtNtCs3mbXwXxPNJN_8devsweep14cache_settings5testss_22test_trash_always_zero
FNDA:3,_RNCNvNtNtCs3mbXwXxPNJN_8devsweep14cache_settings5testss_22test_trash_always_zero0B7_
FNDA:5,_RNvMNtCshVE6m5yoyjE_8devsweep14cache_settingsNtB2_13CacheSettings10format_ttl
FNDA:2,_RNvMNtCshVE6m5yoyjE_8devsweep14cache_settingsNtB2_13CacheSettings11get_presets
FNDA:0,_RNvMNtCshVE6m5yoyjE_8devsweep14cache_settingsNtB2_13CacheSettings12apply_preset
FNDA:0,_RNvMNtCshVE6m5yoyjE_8devsweep14cache_settingsNtB2_13CacheSettings12get_all_ttls
FNDA:0,_RNvMNtCshVE6m5yoyjE_8devsweep14cache_settingsNtB2_13CacheSettings13example_usage
FNDA:0,_RNvMNtCshVE6m5yoyjE_8devsweep14cache_settingsNtB2_13CacheSettings14print_settings
FNDA:0,_RNvMNtCshVE6m5yoyjE_8devsweep14cache_settingsNtB2_13CacheSettings17reset_to_defaults
FNDA:0,_RNvMNtCshVE6m5yoyjE_8devsweep14cache_settingsNtB2_13CacheSettings7set_ttl
FNF:12
FNH:6
DA:11,0
DA:12,0
DA:13,0
DA:16,0
DA:17,0
DA:19,0
DA:20,0
DA:22,0
DA:23,0
DA:24,0
DA:25,0
DA:26,0
DA:27,0
DA:30,10
DA:31,10
DA:32,2
DA:33,8
DA:34,2
DA:35,6
DA:36,2
DA:37,4
DA:38,4
DA:40,0
DA:42,10
DA:45,0
DA:47,0
DA:48,0
DA:50,0
DA:52,0
DA:55,0
DA:56,0
DA:57,0
DA:58,0
DA:61,4
DA:62,4
DA:65,4
DA:67,4
DA:68,4
DA:69,4
DA:70,4
DA:71,4
DA:72,4
DA:73,4
DA:74,4
DA:75,4
DA:76,4
DA:77,4
DA:78,4
DA:83,4
DA:84,4
DA:85,4
DA:86,4
DA:87,4
DA:88,4
DA:89,4
DA:90,4
DA:91,4
DA:92,4
DA:93,4
DA:94,4
DA:95,4
DA:96,4
DA:101,4
DA:102,4
DA:103,4
DA:104,4
DA:105,4
DA:106,4
DA:107,4
DA:108,4
DA:109,4
DA:110,4
DA:111,4
DA:112,4
DA:113,4
DA:114,4
DA:118,4
DA:119,4
DA:122,0
DA:123,0
DA:125,0
DA:126,0
DA:127,0
DA:128,0
DA:129,0
DA:130,0
DA:131,0
DA:132,0
DA:133,0
DA:134,0
DA:135,0
DA:136,0
DA:139,0
DA:140,0
DA:141,0
DA:142,0
DA:143,0
DA:144,0
DA:145,0
DA:146,0
DA:147,0
DA:148,0
DA:149,0
DA:150,0
DA:151,0
DA:152,0
DA:153,0
DA:154,0
DA:155,0
DA:156,0
DA:157,0
DA:158,0
DA:159,0
DA:160,0
DA:161,0
DA:162,0
DA:163,0
DA:164,0
DA:165,0
DA:166,0
DA:167,0
DA:168,0
DA:169,0
DA:170,0
DA:171,0
DA:172,0
DA:173,0
DA:174,0
DA:175,0
DA:176,0
DA:177,0
DA:178,0
DA:179,0
DA:180,0
DA:181,0
DA:182,0
DA:183,0
DA:184,0
DA:185,0
DA:186,0
DA:187,0
DA:188,0
DA:189,0
DA:190,0
DA:191,0
DA:192,0
DA:193,0
DA:194,0
DA:195,0
DA:196,0
DA:197,0
DA:198,0
DA:199,0
DA:200,0
DA:201,0
DA:202,0
DA:203,0
DA:204,0
DA:205,0
DA:206,0
DA:207,0
DA:208,0
DA:209,0
DA:211,0
DA:219,1
DA:220,1
DA:221,1
DA:222,1
DA:223,1
DA:224,1
DA:225,1
DA:228,1
DA:229,1
DA:230,1
DA:231,1
DA:232,1
DA:233,1
DA:236,1
DA:237,1
DA:238,4
DA:239,3
DA:240,3
DA:241,3
DA:242,3
DA:243,3
DA:245,1
BRF:0
BRH:0
LF:187
LH:78
end_of_record
SF:/Users/canggih/Documents/Kedata/cleanstorage/dev-cleaner/src/checkers/browser.rs
FN:271,_RNCNvNtNtCshVE6m5yoyjE_8devsweep8checkers7browser21check_firefox_browser0B7_
FN:239,_RNCNvNtNtCshVE6m5yoyjE_8devsweep8checkers7browser22check_chromium_browser0B7_
FN:4,_RNvNtNtCshVE6m5yoyjE_8devsweep8checkers7browser20check_browser_caches
FN:263,_RNvNtNtCshVE6m5yoyjE_8devsweep8checkers7browser21check_firefox_browser
FN:148,_RNvNtNtCshVE6m5yoyjE_8devsweep8checkers7browser22check_chromium_browser
FN:271,_RNCNvNtNtCs3mbXwXxPNJN_8devsweep8checkers7browser21check_firefox_browser0B7_
FN:239,_RNCNvNtNtCs3mbXwXxPNJN_8devsweep8checkers7browser22check_chromium_browser0B7_
FN:4,_RNvNtNtCs3mbXwXxPNJN_8devsweep8checkers7browser20check_browser_caches
FN:263,_RNvNtNtCs3mbXwXxPNJN_8devsweep8checkers7browser21check_firefox_browser
FN:148,_RNvNtNtCs3mbXwXxPNJN_8devsweep8checkers7browser22check_chromium_browser
FNDA:30,_RNCNvNtNtCshVE6m5yoyjE_8devsweep8checkers7browser21check_firefox_browser0B7_
FNDA:1140,_RNCNvNtNtCshVE6m5yoyjE_8devsweep8checkers7browser22check_chromium_browser0B7_
FNDA:10,_RNvNtNtCshVE6m5yoyjE_8devsweep8checkers7browser20check_browser_caches
FNDA:10,_RNvNtNtCshVE6m5yoyjE_8devsweep8checkers7browser21check_firefox_browser
FNDA:20,_RNvNtNtCshVE6m5yoyjE_8devsweep8checkers7browser22check_chromium_browser
FNDA:0,_RNCNvNtNtCs3mbXwXxPNJN_8devsweep8checkers7browser21check_firefox_browser0B7_
FNDA:0,_RNCNvNtNtCs3mbXwXxPNJN_8devsweep8checkers7browser22check_chromium_browser0B7_
FNDA:0,_RNvNtNtCs3mbXwXxPNJN_8devsweep8checkers7browser20check_browser_caches
FNDA:0,_RNvNtNtCs3mbXwXxPNJN_8devsweep8checkers7browser21check_firefox_browser
FNDA:0,_RNvNtNtCs3mbXwXxPNJN_8devsweep8checkers7browser22check_chromium_browser
FNF:5
FNH:5
DA:4,10
DA:5,10
DA:7,10
DA:8,10
DA:9,0
DA:13,10
DA:14,10
DA:15,10
DA:16,10
DA:17,10
DA:18,10
DA:19,10
DA:20,10
DA:21,10
DA:22,10
DA:23,10
DA:25,40
DA:26,30
DA:27,20
DA:28,20
DA:29,0
DA:30,0
DA:31,0
DA:32,0
DA:33,0
DA:34,0
DA:35,20
DA:36,10
DA:40,10
DA:41,10
DA:42,10
DA:43,10
DA:46,10
DA:47,10
DA:48,0
DA:49,10
DA:52,10
DA:53,10
DA:54,10
DA:55,10
DA:58,10
DA:59,10
DA:60,0
DA:61,10
DA:64,10
DA:65,10
DA:66,0
DA:67,10
DA:70,10
DA:71,10
DA:72,0
DA:73,10
DA:76,10
DA:77,10
DA:78,0
DA:79,10
DA:82,10
DA:83,10
DA:84,10
DA:85,10
DA:88,10
DA:89,10
DA:90,10
DA:91,0
DA:92,10
DA:95,10
DA:96,10
DA:97,0
DA:98,10
DA:101,10
DA:102,10
DA:103,10
DA:104,10
DA:105,10
DA:106,10
DA:107,10
DA:108,10
DA:109,10
DA:110,0
DA:112,10
DA:113,10
DA:114,0
DA:115,0
DA:116,0
DA:117,0
DA:118,0
DA:119,0
DA:120,0
DA:121,10
DA:123,10
DA:124,10
DA:125,0
DA:126,0
DA:127,0
DA:128,0
DA:129,0
DA:130,0
DA:131,0
DA:132,10
DA:134,10
DA:135,10
DA:136,0
DA:137,0
DA:138,0
DA:139,0
DA:140,0
DA:141,0
DA:142,0
DA:143,10
DA:145,10
DA:146,10
DA:148,20
DA:149,20
DA:150,20
DA:151,20
DA:152,20
DA:156,20
DA:157,20
DA:158,20
DA:159,20
DA:160,20
DA:161,20
DA:162,20
DA:163,20
DA:165,140
DA:166,120
DA:167,120
DA:168,50
DA:169,70
DA:172,70
DA:173,70
DA:174,0
DA:175,0
DA:176,0
DA:177,0
DA:178,0
DA:179,0
DA:180,0
DA:181,0
DA:182,0
DA:183,0
DA:184,0
DA:185,70
DA:188,70
DA:189,70
DA:190,0
DA:191,0
DA:192,0
DA:193,0
DA:194,0
DA:195,0
DA:196,0
DA:197,0
DA:198,0
DA:199,0
DA:200,0
DA:201,70
DA:204,70
DA:205,70
DA:206,70
DA:207,70
DA:208,30
DA:209,30
DA:210,30
DA:211,30
DA:212,30
DA:213,30
DA:214,30
DA:215,30
DA:216,40
DA:217,0
DA:220,70
DA:221,70
DA:222,60
DA:223,60
DA:224,50
DA:225,50
DA:226,50
DA:227,50
DA:228,50
DA:229,50
DA:230,50
DA:231,50
DA:232,50
DA:233,50
DA:234,10
DA:238,20
DA:239,1140
DA:240,1140
DA:241,1140
DA:242,70
DA:244,70
DA:245,70
DA:246,0
DA:247,0
DA:248,0
DA:249,0
DA:250,0
DA:251,0
DA:252,0
DA:253,0
DA:254,0
DA:255,0
DA:256,0
DA:257,70
DA:258,1070
DA:260,0
DA:261,20
DA:263,10
DA:264,10
DA:265,10
DA:266,10
DA:267,10
DA:270,10
DA:271,30
DA:272,30
DA:273,30
DA:274,0
DA:275,30
DA:277,30
DA:279,30
DA:280,30
DA:282,0
DA:286,30
DA:287,30
DA:288,0
DA:289,0
DA:290,0
DA:291,0
DA:292,0
DA:293,0
DA:294,0
DA:295,0
DA:296,0
DA:297,0
DA:298,0
DA:299,30
DA:302,30
DA:303,30
DA:304,0
DA:305,0
DA:306,0
DA:307,0
DA:308,0
DA:309,0
DA:310,0
DA:311,0
DA:312,0
DA:313,0
DA:314,0
DA:315,30
DA:318,30
DA:319,30
DA:320,10
DA:321,10
DA:322,0
DA:323,0
DA:324,0
DA:325,0
DA:326,0
DA:327,0
DA:328,0
DA:329,0
DA:330,10
DA:331,20
DA:334,30
DA:335,30
DA:336,0
DA:337,0
DA:338,0
DA:339,0
DA:340,0
DA:341,0
DA:342,0
DA:343,0
DA:344,0
DA:345,0
DA:346,0
DA:347,30
DA:349,0
DA:350,10
BRF:0
BRH:0
LF:283
LH:168
end_of_record
SF:/Users/canggih/Documents/Kedata/cleanstorage/dev-cleaner/src/checkers/db.rs
FN:466,_RNCNvNtNtCshVE6m5yoyjE_8devsweep8checkers2db18check_brew_db_data0B7_
FN:509,_RNCNvNtNtCshVE6m5yoyjE_8devsweep8checkers2db18check_brew_db_datas0_0B7_
FN:524,_RNCNvNtNtCshVE6m5yoyjE_8devsweep8checkers2db18check_brew_db_datas1_0B7_
FN:538,_RNCNvNtNtCshVE6m5yoyjE_8devsweep8checkers2db18check_brew_db_datas2_0B7_
FN:494,_RNCNvNtNtCshVE6m5yoyjE_8devsweep8checkers2db18check_brew_db_datas_0B7_
FN:330,_RNCNvNtNtCshVE6m5yoyjE_8devsweep8checkers2db18check_redis_caches0B7_
FN:264,_RNCNvNtNtCshVE6m5yoyjE_8devsweep8checkers2db20check_mongodb_caches0B7_
FN:52,_RNCNvNtNtCshVE6m5yoyjE_8devsweep8checkers2db21check_postgres_caches0B7_
FN:59,_RNCNvNtNtCshVE6m5yoyjE_8devsweep8checkers2db21check_postgres_cachess_0B7_
FN:6,_RNvNtNtCshVE6m5yoyjE_8devsweep8checkers2db15check_db_caches
FN:459,_RNvNtNtCshVE6m5yoyjE_8devsweep8checkers2db18check_brew_db_data
FN:142,_RNvNtNtCshVE6m5yoyjE_8devsweep8checkers2db18check_mysql_caches
FN:316,_RNvNtNtCshVE6m5yoyjE_8devsweep8checkers2db18check_redis_caches
FN:391,_RNvNtNtCshVE6m5yoyjE_8devsweep8checkers2db19check_sqlite_caches
FN:227,_RNvNtNtCshVE6m5yoyjE_8devsweep8checkers2db20check_mongodb_caches
FN:41,_RNvNtNtCshVE6m5yoyjE_8devsweep8checkers2db21check_postgres_caches
FN:466,_RNCNvNtNtCs3mbXwXxPNJN_8devsweep8checkers2db18check_brew_db_data0B7_
FN:509,_RNCNvNtNtCs3mbXwXxPNJN_8devsweep8checkers2db18check_brew_db_datas0_0B7_
FN:524,_RNCNvNtNtCs3mbXwXxPNJN_8devsweep8checkers2db18check_brew_db_datas1_0B7_
FN:538,_RNCNvNtNtCs3mbXwXxPNJN_8devsweep8checkers2db18check_brew_db_datas2_0B7_
FN:494,_RNCNvNtNtCs3mbXwXxPNJN_8devsweep8checkers2db18check_brew_db_datas_0B7_
FN:330,_RNCNvNtNtCs3mbXwXxPNJN_8devsweep8checkers2db18check_redis_caches0B7_
FN:264,_RNCNvNtNtCs3mbXwXxPNJN_8devsweep8checkers2db20check_mongodb_caches0B7_
FN:52,_RNCNvNtNtCs3mbXwXxPNJN_8devsweep8checkers2db21check_postgres_caches0B7_
FN:59,_RNCNvNtNtCs3mbXwXxPNJN_8devsweep8checkers2db21check_postgres_cachess_0B7_
FN:6,_RNvNtNtCs3mbXwXxPNJN_8devsweep8checkers2db15check_db_caches
FN:459,_RNvNtNtCs3mbXwXxPNJN_8devsweep8checkers2db18check_brew_db_data
FN:142,_RNvNtNtCs3mbXwXxPNJN_8devsweep8checkers2db18check_mysql_caches
FN:316,_RNvNtNtCs3mbXwXxPNJN_8devsweep8checkers2db18check_redis_caches
FN:391,_RNvNtNtCs3mbXwXxPNJN_8devsweep8checkers2db19check_sqlite_caches
FN:227,_RNvNtNtCs3mbXwXxPNJN_8devsweep8checkers2db20check_mongodb_caches
FN:41,_RNvNtNtCs3mbXwXxPNJN_8devsweep8checkers2db21check_postgres_caches
FNDA:0,_RNCNvNtNtCshVE6m5yoyjE_8devsweep8checkers2db18check_brew_db_data0B7_
FNDA:0,_RNCNvNtNtCshVE6m5yoyjE_8devsweep8checkers2db18check_brew_db_datas0_0B7_
FNDA:0,_RNCNvNtNtCshVE6m5yoyjE_8devsweep8checkers2db18check_brew_db_datas1_0B7_
FNDA:0,_RNCNvNtNtCshVE6m5yoyjE_8devsweep8checkers2db18check_brew_db_datas2_0B7_
FNDA:0,_RNCNvNtNtCshVE6m5yoyjE_8devsweep8checkers2db18check_brew_db_datas_0B7_
FNDA:0,_RNCNvNtNtCshVE6m5yoyjE_8devsweep8checkers2db18check_redis_caches0B7_
FNDA:0,_RNCNvNtNtCshVE6m5yoyjE_8devsweep8checkers2db20check_mongodb_caches0B7_
FNDA:20,_RNCNvNtNtCshVE6m5yoyjE_8devsweep8checkers2db21check_postgres_caches0B7_
FNDA:20,_RNCNvNtNtCshVE6m5yoyjE_8devsweep8checkers2db21check_postgres_cachess_0B7_
FNDA:10,_RNvNtNtCshVE6m5yoyjE_8devsweep8checkers2db15check_db_caches
FNDA:10,_RNvNtNtCshVE6m5yoyjE_8devsweep8checkers2db18check_brew_db_data
FNDA:10,_RNvNtNtCshVE6m5yoyjE_8devsweep8checkers2db18check_mysql_caches
FNDA:10,_RNvNtNtCshVE6m5yoyjE_8devsweep8checkers2db18check_redis_caches
FNDA:10,_RNvNtNtCshVE6m5yoyjE_8devsweep8checkers2db19check_sqlite_caches
FNDA:10,_RNvNtNtCshVE6m5yoyjE_8devsweep8checkers2db20check_mongodb_caches
FNDA:10,_RNvNtNtCshVE6m5yoyjE_8devsweep8checkers2db21check_postgres_caches
FNDA:0,_RNCNvNtNtCs3mbXwXxPNJN_8devsweep8checkers2db18check_brew_db_data0B7_
FNDA:0,_RNCNvNtNtCs3mbXwXxPNJN_8devsweep8checkers2db18check_brew_db_datas0_0B7_
FNDA:0,_RNCNvNtNtCs3mbXwXxPNJN_8devsweep8checkers2db18check_brew_db_datas1_0B7_
FNDA:0,_RNCNvNtNtCs3mbXwXxPNJN_8devsweep8checkers2db18check_brew_db_datas2_0B7_
FNDA:0,_RNCNvNtNtCs3mbXwXxPNJN_8devsweep8checkers2db18check_brew_db_datas_0B7_
FNDA:0,_RNCNvNtNtCs3mbXwXxPNJN_8devsweep8checkers2db18check_redis_caches0B7_
FNDA:0,_RNCNvNtNtCs3mbXwXxPNJN_8devsweep8checkers2db20check_mongodb_caches0B7_
FNDA:0,_RNCNvNtNtCs3mbXwXxPNJN_8devsweep8checkers2db21check_postgres_caches0B7_
FNDA:0,_RNCNvNtNtCs3mbXwXxPNJN_8devsweep8checkers2db21check_postgres_cachess_0B7_
FNDA:0,_RNvNtNtCs3mbXwXxPNJN_8devsweep8checkers2db15check_db_caches
FNDA:0,_RNvNtNtCs3mbXwXxPNJN_8devsweep8checkers2db18check_brew_db_data
FNDA:0,_RNvNtNtCs3mbXwXxPNJN_8devsweep8checkers2db18check_mysql_caches
FNDA:0,_RNvNtNtCs3mbXwXxPNJN_8devsweep8checkers2db18check_redis_caches
FNDA:0,_RNvNtNtCs3mbXwXxPNJN_8devsweep8checkers2db19check_sqlite_caches
FNDA:0,_RNvNtNtCs3mbXwXxPNJN_8devsweep8checkers2db20check_mongodb_caches
FNDA:0,_RNvNtNtCs3mbXwXxPNJN_8devsweep8checkers2db21check_postgres_caches
FNF:16
FNH:9
DA:6,10
DA:7,10
DA:9,10
DA:10,10
DA:11,10
DA:12,10
DA:13,10
DA:14,10
DA:15,10
DA:16,10
DA:17,10
DA:18,10
DA:19,10
DA:20,10
DA:21,10
DA:22,10
DA:23,10
DA:24,10
DA:27,10
DA:28,10
DA:29,10
DA:32,30
DA:33,20
DA:34,10
DA:35,10
DA:38,10
DA:39,10
DA:41,10
DA:42,10
DA:43,10
DA:46,10
DA:47,10
DA:48,10
DA:49,20
DA:50,20
DA:51,20
DA:52,20
DA:55,20
DA:57,20
DA:58,20
DA:59,20
DA:60,20
DA:61,0
DA:62,0
DA:63,0
DA:64,0
DA:65,0
DA:66,0
DA:67,0
DA:68,0
DA:69,0
DA:70,0
DA:71,20
DA:72,0
DA:75,20
DA:76,20
DA:77,0
DA:78,0
DA:79,0
DA:80,0
DA:81,0
DA:82,0
DA:83,0
DA:84,0
DA:85,0
DA:86,0
DA:87,0
DA:88,0
DA:89,0
DA:90,20
DA:93,20
DA:94,20
DA:95,20
DA:96,20
DA:97,0
DA:98,0
DA:99,0
DA:100,0
DA:101,0
DA:102,0
DA:103,0
DA:104,0
DA:105,0
DA:106,0
DA:107,0
DA:108,20
DA:109,0
DA:110,0
DA:111,0
DA:113,0
DA:114,0
DA:117,10
DA:118,10
DA:119,0
DA:120,0
DA:121,0
DA:122,0
DA:123,0
DA:124,0
DA:125,0
DA:126,10
DA:128,10
DA:129,0
DA:130,0
DA:131,0
DA:132,0
DA:133,0
DA:134,0
DA:135,0
DA:136,0
DA:137,0
DA:138,0
DA:139,10
DA:140,10
DA:142,10
DA:143,10
DA:144,10
DA:147,10
DA:148,10
DA:150,0
DA:151,0
DA:152,0
DA:153,0
DA:154,0
DA:155,0
DA:156,0
DA:157,0
DA:158,0
DA:159,0
DA:160,0
DA:161,0
DA:164,0
DA:165,0
DA:166,0
DA:167,0
DA:168,0
DA:169,0
DA:170,0
DA:171,0
DA:172,0
DA:173,0
DA:174,0
DA:175,0
DA:176,10
DA:179,10
DA:180,10
DA:181,0
DA:182,0
DA:183,0
DA:184,0
DA:185,0
DA:186,0
DA:187,0
DA:188,0
DA:189,10
DA:192,10
DA:193,10
DA:194,0
DA:195,0
DA:196,0
DA:197,0
DA:198,0
DA:199,0
DA:200,0
DA:201,0
DA:202,0
DA:203,10
DA:205,10
DA:206,10
DA:207,0
DA:208,0
DA:209,0
DA:210,0
DA:211,0
DA:212,0
DA:213,0
DA:214,0
DA:215,0
DA:216,10
DA:218,10
DA:219,0
DA:220,0
DA:221,0
DA:222,0
DA:223,0
DA:224,10
DA:225,10
DA:227,10
DA:228,10
DA:229,10
DA:232,10
DA:233,10
DA:234,0
DA:235,0
DA:236,0
DA:237,0
DA:238,0
DA:239,0
DA:240,0
DA:241,0
DA:242,10
DA:245,10
DA:246,10
DA:247,10
DA:248,10
DA:249,0
DA:250,0
DA:251,0
DA:252,0
DA:253,0
DA:254,0
DA:255,0
DA:256,0
DA:257,0
DA:258,10
DA:259,0
DA:262,10
DA:263,10
DA:264,0
DA:265,0
DA:266,0
DA:267,0
DA:268,0
DA:269,0
DA:270,0
DA:271,0
DA:272,10
DA:275,10
DA:276,10
DA:278,0
DA:279,0
DA:280,0
DA:281,0
DA:282,0
DA:283,0
DA:284,0
DA:285,0
DA:286,0
DA:287,0
DA:288,0
DA:289,0
DA:290,0
DA:292,0
DA:293,0
DA:294,0
DA:295,0
DA:296,0
DA:297,0
DA:298,0
DA:299,0
DA:300,0
DA:301,0
DA:302,0
DA:303,0
DA:304,10
DA:306,10
DA:307,0
DA:308,0
DA:309,0
DA:310,0
DA:311,0
DA:312,0
DA:313,10
DA:314,10
DA:316,10
DA:317,10
DA:318,10
DA:321,10
DA:322,10
DA:323,10
DA:324,10
DA:325,10
DA:328,50
DA:329,40
DA:330,0
DA:331,0
DA:333,0
DA:334,0
DA:336,0
DA:338,0
DA:339,0
DA:340,0
DA:341,0
DA:342,0
DA:344,0
DA:345,0
DA:347,0
DA:348,0
DA:349,40
DA:353,10
DA:354,10
DA:355,0
DA:356,0
DA:357,0
DA:358,0
DA:359,0
DA:360,0
DA:361,0
DA:362,0
DA:363,10
DA:366,10
DA:367,10
DA:368,0
DA:369,0
DA:370,0
DA:371,0
DA:372,0
DA:373,0
DA:374,0
DA:375,0
DA:376,0
DA:377,0
DA:378,0
DA:379,0
DA:380,10
DA:382,10
DA:383,0
DA:384,0
DA:385,0
DA:386,0
DA:387,0
DA:388,10
DA:389,10
DA:391,10
DA:392,10
DA:393,10
DA:396,10
DA:397,10
DA:398,0
DA:399,0
DA:400,0
DA:401,0
DA:402,0
DA:403,0
DA:404,0
DA:405,0
DA:406,10
DA:409,10
DA:410,10
DA:411,0
DA:412,0
DA:413,0
DA:414,0
DA:415,0
DA:416,0
DA:417,0
DA:418,0
DA:419,10
DA:422,10
DA:423,10
DA:424,0
DA:425,0
DA:426,0
DA:427,0
DA:428,0
DA:429,0
DA:430,0
DA:431,10
DA:433,10
DA:434,10
DA:436,10
DA:437,10
DA:438,10
DA:439,10
DA:440,0
DA:441,0
DA:442,0
DA:443,0
DA:444,0
DA:445,0
DA:446,10
DA:447,0
DA:448,0
DA:450,10
DA:451,0
DA:452,0
DA:453,0
DA:454,0
DA:455,0
DA:456,10
DA:457,10
DA:459,10
DA:460,10
DA:461,10
DA:464,10
DA:465,10
DA:466,0
DA:467,0
DA:468,0
DA:469,0
DA:470,0
DA:471,0
DA:472,0
DA:473,0
DA:474,0
DA:475,10
DA:478,10
DA:479,10
DA:480,0
DA:481,0
DA:482,0
DA:483,0
DA:484,0
DA:485,0
DA:486,0
DA:487,0
DA:488,0
DA:489,10
DA:492,10
DA:493,10
DA:494,0
DA:495,0
DA:496,0
DA:497,0
DA:498,0
DA:499,0
DA:500,0
DA:501,0
DA:502,0
DA:503,10
DA:506,10
DA:507,10
DA:508,0
DA:509,0
DA:510,0
DA:511,0
DA:512,0
DA:513,0
DA:514,0
DA:515,0
DA:516,0
DA:517,0
DA:518,0
DA:519,10
DA:522,10
DA:523,10
DA:524,0
DA:525,0
DA:526,0
DA:527,0
DA:528,0
DA:529,0
DA:530,0
DA:531,0
DA:532,0
DA:533,10
DA:536,10
DA:537,10
DA:538,0
DA:539,0
DA:540,0
DA:541,0
DA:542,0
DA:543,0
DA:544,0
DA:545,0
DA:546,0
DA:547,10
DA:549,10
DA:550,0
DA:551,0
DA:552,0
DA:553,0
DA:554,0
DA:555,0
DA:556,0
DA:557,0
DA:558,0
DA:559,10
DA:560,10
BRF:0
BRH:0
LF:479
LH:163
end_of_record
SF:/Users/canggih/Documents/Kedata/cleanstorage/dev-cleaner/src/checkers/docker.rs
FN:4,_RNvNtNtCshVE6m5yoyjE_8devsweep8checkers6docker12check_docker
FN:74,_RNvNtNtCshVE6m5yoyjE_8devsweep8checkers6docker17parse_docker_size
FN:23,_RNCNvNtNtCshVE6m5yoyjE_8devsweep8checkers6docker12check_docker0B7_
FN:31,_RNCNvNtNtCshVE6m5yoyjE_8devsweep8checkers6docker12check_dockers_0B7_
FN:95,_RNCNvNtNtCshVE6m5yoyjE_8devsweep8checkers6docker17parse_docker_size0B7_
FN:23,_RNCNvNtNtCs3mbXwXxPNJN_8devsweep8checkers6docker12check_docker0B7_
FN:31,_RNCNvNtNtCs3mbXwXxPNJN_8devsweep8checkers6docker12check_dockers_0B7_
FN:95,_RNCNvNtNtCs3mbXwXxPNJN_8devsweep8checkers6docker17parse_docker_size0B7_
FN:4,_RNvNtNtCs3mbXwXxPNJN_8devsweep8checkers6docker12check_docker
FN:74,_RNvNtNtCs3mbXwXxPNJN_8devsweep8checkers6docker17parse_docker_size
FNDA:10,_RNvNtNtCshVE6m5yoyjE_8devsweep8checkers6docker12check_docker
FNDA:0,_RNvNtNtCshVE6m5yoyjE_8devsweep8checkers6docker17parse_docker_size
FNDA:0,_RNCNvNtNtCshVE6m5yoyjE_8devsweep8checkers6docker12check_docker0B7_
FNDA:0,_RNCNvNtNtCshVE6m5yoyjE_8devsweep8checkers6docker12check_dockers_0B7_
FNDA:0,_RNCNvNtNtCshVE6m5yoyjE_8devsweep8checkers6docker17parse_docker_size0B7_
FNDA:0,_RNCNvNtNtCs3mbXwXxPNJN_8devsweep8checkers6docker12check_docker0B7_
FNDA:0,_RNCNvNtNtCs3mbXwXxPNJN_8devsweep8checkers6docker12check_dockers_0B7_
FNDA:0,_RNCNvNtNtCs3mbXwXxPNJN_8devsweep8checkers6docker17parse_docker_size0B7_
FNDA:0,_RNvNtNtCs3mbXwXxPNJN_8devsweep8checkers6docker12check_docker
FNDA:0,_RNvNtNtCs3mbXwXxPNJN_8devsweep8checkers6docker17parse_docker_size
FNF:5
FNH:1
DA:4,10
DA:5,10
DA:8,10
DA:9,10
DA:10,10
DA:11,10
DA:12,0
DA:14,0
DA:17,0
DA:18,0
DA:19,0
DA:22,0
DA:23,0
DA:24,0
DA:25,0
DA:26,0
DA:27,0
DA:30,0
DA:31,0
DA:32,0
DA:33,0
DA:34,0
DA:35,0
DA:38,0
DA:39,0
DA:40,0
DA:41,0
DA:42,0
DA:43,0
DA:44,0
DA:45,0
DA:46,0
DA:47,0
DA:48,0
DA:49,0
DA:50,0
DA:52,0
DA:53,0
DA:54,0
DA:55,0
DA:56,0
DA:59,0
DA:60,0
DA:61,0
DA:62,0
DA:63,0
DA:64,0
DA:65,0
DA:66,0
DA:67,0
DA:68,0
DA:69,0
DA:71,0
DA:72,10
DA:74,0
DA:75,0
DA:76,0
DA:77,0
DA:78,0
DA:80,0
DA:81,0
DA:82,0
DA:83,0
DA:84,0
DA:85,0
DA:86,0
DA:87,0
DA:89,0
DA:92,0
DA:93,0
DA:94,0
DA:95,0
DA:96,0
BRF:0
BRH:0
LF:76
LH:7
end_of_record
SF:/Users/canggih/Documents/Kedata/cleanstorage/dev-cleaner/src/checkers/general.rs
FN:69,_RNvNtNtCshVE6m5yoyjE_8devsweep8checkers7general11check_trash
FN:165,_RNvNtNtCshVE6m5yoyjE_8devsweep8checkers7general18check_node_modules
FN:6,_RNvNtNtCshVE6m5yoyjE_8devsweep8checkers7general20check_general_caches
FN:217,_RNCNCNCNvNtNtCshVE6m5yoyjE_8devsweep8checkers7general18check_node_moduless_0s0_00Bb_
FN:221,_RNCNCNCNvNtNtCshVE6m5yoyjE_8devsweep8checkers7general18check_node_moduless_0s0_0s_0Bb_
FN:206,_RNCNCNvNtNtCshVE6m5yoyjE_8devsweep8checkers7general18check_node_moduless_00B9_
FN:211,_RNCNCNvNtNtCshVE6m5yoyjE_8devsweep8checkers7general18check_node_moduless_0s0_0B9_
FN:229,_RNCNCNvNtNtCshVE6m5yoyjE_8devsweep8checkers7general18check_node_moduless_0s1_0B9_
FN:210,_RNCNCNvNtNtCshVE6m5yoyjE_8devsweep8checkers7general18check_node_moduless_0s_0B9_
FN:201,_RNCNvNtNtCshVE6m5yoyjE_8devsweep8checkers7general18check_node_modules0B7_
FN:260,_RNCNvNtNtCshVE6m5yoyjE_8devsweep8checkers7general18check_node_moduless0_0B7_
FN:202,_RNCNvNtNtCshVE6m5yoyjE_8devsweep8checkers7general18check_node_moduless_0B7_
FN:20,_RNCNvNtNtCshVE6m5yoyjE_8devsweep8checkers7general20check_general_caches0B7_
FN:43,_RNCNvNtNtCshVE6m5yoyjE_8devsweep8checkers7general20check_general_cachess0_0B7_
FN:25,_RNCNvNtNtCshVE6m5yoyjE_8devsweep8checkers7general20check_general_cachess_0B7_
FN:217,_RNCNCNCNvNtNtCs3mbXwXxPNJN_8devsweep8checkers7general18check_node_moduless_0s0_00Bb_
FN:221,_RNCNCNCNvNtNtCs3mbXwXxPNJN_8devsweep8checkers7general18check_node_moduless_0s0_0s_0Bb_
FN:206,_RNCNCNvNtNtCs3mbXwXxPNJN_8devsweep8checkers7general18check_node_moduless_00B9_
FN:211,_RNCNCNvNtNtCs3mbXwXxPNJN_8devsweep8checkers7general18check_node_moduless_0s0_0B9_
FN:229,_RNCNCNvNtNtCs3mbXwXxPNJN_8devsweep8checkers7general18check_node_moduless_0s1_0B9_
FN:210,_RNCNCNvNtNtCs3mbXwXxPNJN_8devsweep8checkers7general18check_node_moduless_0s_0B9_
FN:201,_RNCNvNtNtCs3mbXwXxPNJN_8devsweep8checkers7general18check_node_modules0B7_
FN:260,_RNCNvNtNtCs3mbXwXxPNJN_8devsweep8checkers7general18check_node_moduless0_0B7_
FN:202,_RNCNvNtNtCs3mbXwXxPNJN_8devsweep8checkers7general18check_node_moduless_0B7_
FN:20,_RNCNvNtNtCs3mbXwXxPNJN_8devsweep8checkers7general20check_general_caches0B7_
FN:43,_RNCNvNtNtCs3mbXwXxPNJN_8devsweep8checkers7general20check_general_cachess0_0B7_
FN:25,_RNCNvNtNtCs3mbXwXxPNJN_8devsweep8checkers7general20check_general_cachess_0B7_
FN:69,_RNvNtNtCs3mbXwXxPNJN_8devsweep8checkers7general11check_trash
FN:165,_RNvNtNtCs3mbXwXxPNJN_8devsweep8checkers7general18check_node_modules
FN:6,_RNvNtNtCs3mbXwXxPNJN_8devsweep8checkers7general20check_general_caches
FNDA:10,_RNvNtNtCshVE6m5yoyjE_8devsweep8checkers7general11check_trash
FNDA:10,_RNvNtNtCshVE6m5yoyjE_8devsweep8checkers7general18check_node_modules
FNDA:10,_RNvNtNtCshVE6m5yoyjE_8devsweep8checkers7general20check_general_caches
FNDA:66010,_RNCNCNCNvNtNtCshVE6m5yoyjE_8devsweep8checkers7general18check_node_moduless_0s0_00Bb_
FNDA:90,_RNCNCNCNvNtNtCshVE6m5yoyjE_8devsweep8checkers7general18check_node_moduless_0s0_0s_0Bb_
FNDA:413370,_RNCNCNvNtNtCshVE6m5yoyjE_8devsweep8checkers7general18check_node_moduless_00B9_
FNDA:407180,_RNCNCNvNtNtCshVE6m5yoyjE_8devsweep8checkers7general18check_node_moduless_0s0_0B9_
FNDA:70,_RNCNCNvNtNtCshVE6m5yoyjE_8devsweep8checkers7general18check_node_moduless_0s1_0B9_
FNDA:407180,_RNCNCNvNtNtCshVE6m5yoyjE_8devsweep8checkers7general18check_node_moduless_0s_0B9_
FNDA:50,_RNCNvNtNtCshVE6m5yoyjE_8devsweep8checkers7general18check_node_modules0B7_
FNDA:0,_RNCNvNtNtCshVE6m5yoyjE_8devsweep8checkers7general18check_node_moduless0_0B7_
FNDA:20,_RNCNvNtNtCshVE6m5yoyjE_8devsweep8checkers7general18check_node_moduless_0B7_
FNDA:970,_RNCNvNtNtCshVE6m5yoyjE_8devsweep8checkers7general20check_general_caches0B7_
FNDA:80,_RNCNvNtNtCshVE6m5yoyjE_8devsweep8checkers7general20check_general_cachess0_0B7_
FNDA:970,_RNCNvNtNtCshVE6m5yoyjE_8devsweep8checkers7general20check_general_cachess_0B7_
FNDA:0,_RNCNCNCNvNtNtCs3mbXwXxPNJN_8devsweep8checkers7general18check_node_moduless_0s0_00Bb_
FNDA:0,_RNCNCNCNvNtNtCs3mbXwXxPNJN_8devsweep8checkers7general18check_node_moduless_0s0_0s_0Bb_
FNDA:0,_RNCNCNvNtNtCs3mbXwXxPNJN_8devsweep8checkers7general18check_node_moduless_00B9_
FNDA:0,_RNCNCNvNtNtCs3mbXwXxPNJN_8devsweep8checkers7general18check_node_moduless_0s0_0B9_
FNDA:0,_RNCNCNvNtNtCs3mbXwXxPNJN_8devsweep8checkers7general18check_node_moduless_0s1_0B9_
FNDA:0,_RNCNCNvNtNtCs3mbXwXxPNJN_8devsweep8checkers7general18check_node_moduless_0s_0B9_
FNDA:0,_RNCNvNtNtCs3mbXwXxPNJN_8devsweep8checkers7general18check_node_modules0B7_
FNDA:0,_RNCNvNtNtCs3mbXwXxPNJN_8devsweep8checkers7general18check_node_moduless0_0B7_
FNDA:0,_RNCNvNtNtCs3mbXwXxPNJN_8devsweep8checkers7general18check_node_moduless_0B7_
FNDA:0,_RNCNvNtNtCs3mbXwXxPNJN_8devsweep8checkers7general20check_general_caches0B7_
FNDA:0,_RNCNvNtNtCs3mbXwXxPNJN_8devsweep8checkers7general20check_general_cachess0_0B7_
FNDA:0,_RNCNvNtNtCs3mbXwXxPNJN_8devsweep8checkers7general20check_general_cachess_0B7_
FNDA:0,_RNvNtNtCs3mbXwXxPNJN_8devsweep8checkers7general11check_trash
FNDA:0,_RNvNtNtCs3mbXwXxPNJN_8devsweep8checkers7general18check_node_modules
FNDA:0,_RNvNtNtCs3mbXwXxPNJN_8devsweep8checkers7general20check_general_caches
FNF:15
FNH:14
DA:6,10
DA:9,10
DA:11,10
DA:12,10
DA:13,0
DA:17,10
DA:18,10
DA:19,10
DA:20,970
DA:23,10
DA:24,10
DA:25,970
DA:26,970
DA:27,970
DA:28,870
DA:29,870
DA:31,50
DA:32,50
DA:34,820
DA:37,100
DA:39,970
DA:40,10
DA:43,80
DA:44,60
DA:45,50
DA:46,50
DA:47,50
DA:48,50
DA:49,50
DA:50,0
DA:51,0
DA:54,10
DA:55,10
DA:56,10
DA:57,10
DA:58,0
DA:59,0
DA:60,0
DA:61,0
DA:62,0
DA:63,10
DA:64,0
DA:66,10
DA:67,10
DA:69,10
DA:70,10
DA:72,10
DA:73,10
DA:74,0
DA:77,10
DA:79,10
DA:80,10
DA:82,10
DA:83,0
DA:84,0
DA:85,10
DA:88,10
DA:89,0
DA:90,0
DA:91,0
DA:93,0
DA:94,0
DA:95,0
DA:96,0
DA:97,0
DA:98,0
DA:101,0
DA:102,0
DA:103,0
DA:104,0
DA:105,0
DA:106,0
DA:107,0
DA:108,0
DA:110,0
DA:111,0
DA:112,0
DA:116,0
DA:117,0
DA:120,0
DA:122,0
DA:124,10
DA:125,10
DA:126,10
DA:127,10
DA:131,10
DA:132,10
DA:133,10
DA:134,10
DA:135,10
DA:136,10
DA:137,10
DA:139,10
DA:143,0
DA:144,0
DA:145,0
DA:146,0
DA:147,0
DA:148,0
DA:149,0
DA:150,0
DA:151,0
DA:152,0
DA:153,0
DA:154,0
DA:155,0
DA:156,0
DA:157,0
DA:158,0
DA:159,0
DA:160,0
DA:162,0
DA:163,10
DA:165,10
DA:169,10
DA:171,10
DA:172,10
DA:173,0
DA:176,10
DA:177,10
DA:178,10
DA:179,10
DA:180,10
DA:181,10
DA:182,10
DA:184,10
DA:185,10
DA:187,10
DA:188,10
DA:189,10
DA:190,10
DA:191,10
DA:192,10
DA:193,10
DA:194,10
DA:195,10
DA:196,10
DA:199,10
DA:200,10
DA:201,50
DA:202,20
DA:203,20
DA:204,20
DA:205,20
DA:206,413370
DA:207,413370
DA:208,413370
DA:209,413370
DA:210,407180
DA:211,407180
DA:212,407180
DA:214,407180
DA:215,66010
DA:216,66010
DA:217,66010
DA:218,66010
DA:219,90
DA:220,90
DA:221,90
DA:222,90
DA:223,407180
DA:224,20
DA:227,20
DA:228,20
DA:229,70
DA:230,70
DA:231,70
DA:234,70
DA:235,0
DA:236,0
DA:237,0
DA:238,0
DA:239,0
DA:240,0
DA:242,70
DA:244,70
DA:245,20
DA:248,20
DA:249,0
DA:250,20
DA:251,20
DA:254,10
DA:255,10
DA:256,0
DA:260,10
DA:261,10
DA:262,0
DA:263,0
DA:264,0
DA:265,0
DA:266,0
DA:267,0
DA:268,0
DA:269,0
DA:270,0
DA:272,10
DA:273,10
BRF:0
BRH:0
LF:209
LH:135
end_of_record
SF:/Users/canggih/Documents/Kedata/cleanstorage/dev-cleaner/src/checkers/go.rs
FN:5,_RNvNtNtCshVE6m5yoyjE_8devsweep8checkers2go8check_go
FN:5,_RNvNtNtCs3mbXwXxPNJN_8devsweep8checkers2go8check_go
FNDA:10,_RNvNtNtCshVE6m5yoyjE_8devsweep8checkers2go8check_go
FNDA:0,_RNvNtNtCs3mbXwXxPNJN_8devsweep8checkers2go8check_go
FNF:1
FNH:1
DA:5,10
DA:6,10
DA:8,10
DA:9,10
DA:10,0
DA:14,10
DA:15,10
DA:16,0
DA:17,0
DA:18,0
DA:19,0
DA:20,0
DA:21,0
DA:22,0
DA:23,0
DA:24,10
DA:27,10
DA:28,10
DA:29,10
DA:30,0
DA:31,0
DA:32,0
DA:33,0
DA:34,0
DA:35,0
DA:36,0
DA:37,0
DA:38,10
DA:39,0
DA:41,10
DA:42,10
BRF:0
BRH:0
LF:31
LH:13
end_of_record
SF:/Users/canggih/Documents/Kedata/cleanstorage/dev-cleaner/src/checkers/homebrew.rs
FN:67,_RNCNCNvNtNtCshVE6m5yoyjE_8devsweep8checkers8homebrew14check_homebrews0_00B9_
FN:69,_RNCNCNvNtNtCshVE6m5yoyjE_8devsweep8checkers8homebrew14check_homebrews0_0s0_0B9_
FN:80,_RNCNCNvNtNtCshVE6m5yoyjE_8devsweep8checkers8homebrew14check_homebrews0_0s1_0B9_
FN:68,_RNCNCNvNtNtCshVE6m5yoyjE_8devsweep8checkers8homebrew14check_homebrews0_0s_0B9_
FN:25,_RNCNvNtNtCshVE6m5yoyjE_8devsweep8checkers8homebrew14check_homebrew0B7_
FN:57,_RNCNvNtNtCshVE6m5yoyjE_8devsweep8checkers8homebrew14check_homebrews0_0B7_
FN:103,_RNCNvNtNtCshVE6m5yoyjE_8devsweep8checkers8homebrew14check_homebrews2_0B7_
FN:108,_RNCNvNtNtCshVE6m5yoyjE_8devsweep8checkers8homebrew14check_homebrews3_0B7_
FN:130,_RNCNvNtNtCshVE6m5yoyjE_8devsweep8checkers8homebrew14check_homebrews4_0B7_
FN:147,_RNCNvNtNtCshVE6m5yoyjE_8devsweep8checkers8homebrew14check_homebrews5_0B7_
FN:159,_RNCNvNtNtCshVE6m5yoyjE_8devsweep8checkers8homebrew14check_homebrews6_0B7_
FN:178,_RNCNvNtNtCshVE6m5yoyjE_8devsweep8checkers8homebrew14check_homebrews7_0B7_
FN:183,_RNCNvNtNtCshVE6m5yoyjE_8devsweep8checkers8homebrew14check_homebrews8_0B7_
FN:201,_RNCNvNtNtCshVE6m5yoyjE_8devsweep8checkers8homebrew14check_homebrews9_0B7_
FN:52,_RNCNvNtNtCshVE6m5yoyjE_8devsweep8checkers8homebrew14check_homebrews_0B7_
FN:248,_RNCNvNtNtCshVE6m5yoyjE_8devsweep8checkers8homebrew14check_homebrewsa_0B7_
FN:10,_RNvNtNtCshVE6m5yoyjE_8devsweep8checkers8homebrew14check_homebrew
FN:67,_RNCNCNvNtNtCs3mbXwXxPNJN_8devsweep8checkers8homebrew14check_homebrews0_00B9_
FN:69,_RNCNCNvNtNtCs3mbXwXxPNJN_8devsweep8checkers8homebrew14check_homebrews0_0s0_0B9_
FN:80,_RNCNCNvNtNtCs3mbXwXxPNJN_8devsweep8checkers8homebrew14check_homebrews0_0s1_0B9_
FN:68,_RNCNCNvNtNtCs3mbXwXxPNJN_8devsweep8checkers8homebrew14check_homebrews0_0s_0B9_
FN:25,_RNCNvNtNtCs3mbXwXxPNJN_8devsweep8checkers8homebrew14check_homebrew0B7_
FN:57,_RNCNvNtNtCs3mbXwXxPNJN_8devsweep8checkers8homebrew14check_homebrews0_0B7_
FN:103,_RNCNvNtNtCs3mbXwXxPNJN_8devsweep8checkers8homebrew14check_homebrews2_0B7_
FN:108,_RNCNvNtNtCs3mbXwXxPNJN_8devsweep8checkers8homebrew14check_homebrews3_0B7_
FN:130,_RNCNvNtNtCs3mbXwXxPNJN_8devsweep8checkers8homebrew14check_homebrews4_0B7_
FN:147,_RNCNvNtNtCs3mbXwXxPNJN_8devsweep8checkers8homebrew14check_homebrews5_0B7_
FN:159,_RNCNvNtNtCs3mbXwXxPNJN_8devsweep8checkers8homebrew14check_homebrews6_0B7_
FN:178,_RNCNvNtNtCs3mbXwXxPNJN_8devsweep8checkers8homebrew14check_homebrews7_0B7_
FN:183,_RNCNvNtNtCs3mbXwXxPNJN_8devsweep8checkers8homebrew14check_homebrews8_0B7_
FN:201,_RNCNvNtNtCs3mbXwXxPNJN_8devsweep8checkers8homebrew14check_homebrews9_0B7_
FN:52,_RNCNvNtNtCs3mbXwXxPNJN_8devsweep8checkers8homebrew14check_homebrews_0B7_
FN:248,_RNCNvNtNtCs3mbXwXxPNJN_8devsweep8checkers8homebrew14check_homebrewsa_0B7_
FN:10,_RNvNtNtCs3mbXwXxPNJN_8devsweep8checkers8homebrew14check_homebrew
FNDA:2650,_RNCNCNvNtNtCshVE6m5yoyjE_8devsweep8checkers8homebrew14check_homebrews0_00B9_
FNDA:2650,_RNCNCNvNtNtCshVE6m5yoyjE_8devsweep8checkers8homebrew14check_homebrews0_0s0_0B9_
FNDA:1210,_RNCNCNvNtNtCshVE6m5yoyjE_8devsweep8checkers8homebrew14check_homebrews0_0s1_0B9_
FNDA:2650,_RNCNCNvNtNtCshVE6m5yoyjE_8devsweep8checkers8homebrew14check_homebrews0_0s_0B9_
FNDA:0,_RNCNvNtNtCshVE6m5yoyjE_8devsweep8checkers8homebrew14check_homebrew0B7_
FNDA:1450,_RNCNvNtNtCshVE6m5yoyjE_8devsweep8checkers8homebrew14check_homebrews0_0B7_
FNDA:2070,_RNCNvNtNtCshVE6m5yoyjE_8devsweep8checkers8homebrew14check_homebrews2_0B7_
FNDA:150,_RNCNvNtNtCshVE6m5yoyjE_8devsweep8checkers8homebrew14check_homebrews3_0B7_
FNDA:1450,_RNCNvNtNtCshVE6m5yoyjE_8devsweep8checkers8homebrew14check_homebrews4_0B7_
FNDA:90,_RNCNvNtNtCshVE6m5yoyjE_8devsweep8checkers8homebrew14check_homebrews5_0B7_
FNDA:40,_RNCNvNtNtCshVE6m5yoyjE_8devsweep8checkers8homebrew14check_homebrews6_0B7_
FNDA:10,_RNCNvNtNtCshVE6m5yoyjE_8devsweep8checkers8homebrew14check_homebrews7_0B7_
FNDA:20,_RNCNvNtNtCshVE6m5yoyjE_8devsweep8checkers8homebrew14check_homebrews8_0B7_
FNDA:310,_RNCNvNtNtCshVE6m5yoyjE_8devsweep8checkers8homebrew14check_homebrews9_0B7_
FNDA:1450,_RNCNvNtNtCshVE6m5yoyjE_8devsweep8checkers8homebrew14check_homebrews_0B7_
FNDA:0,_RNCNvNtNtCshVE6m5yoyjE_8devsweep8checkers8homebrew14check_homebrewsa_0B7_
FNDA:10,_RNvNtNtCshVE6m5yoyjE_8devsweep8checkers8homebrew14check_homebrew
FNDA:0,_RNCNCNvNtNtCs3mbXwXxPNJN_8devsweep8checkers8homebrew14check_homebrews0_00B9_
FNDA:0,_RNCNCNvNtNtCs3mbXwXxPNJN_8devsweep8checkers8homebrew14check_homebrews0_0s0_0B9_
FNDA:0,_RNCNCNvNtNtCs3mbXwXxPNJN_8devsweep8checkers8homebrew14check_homebrews0_0s1_0B9_
FNDA:0,_RNCNCNvNtNtCs3mbXwXxPNJN_8devsweep8checkers8homebrew14check_homebrews0_0s_0B9_
FNDA:0,_RNCNvNtNtCs3mbXwXxPNJN_8devsweep8checkers8homebrew14check_homebrew0B7_
FNDA:0,_RNCNvNtNtCs3mbXwXxPNJN_8devsweep8checkers8homebrew14check_homebrews0_0B7_
FNDA:0,_RNCNvNtNtCs3mbXwXxPNJN_8devsweep8checkers8homebrew14check_homebrews2_0B7_
FNDA:0,_RNCNvNtNtCs3mbXwXxPNJN_8devsweep8checkers8homebrew14check_homebrews3_0B7_
FNDA:0,_RNCNvNtNtCs3mbXwXxPNJN_8devsweep8checkers8homebrew14check_homebrews4_0B7_
FNDA:0,_RNCNvNtNtCs3mbXwXxPNJN_8devsweep8checkers8homebrew14check_homebrews5_0B7_
FNDA:0,_RNCNvNtNtCs3mbXwXxPNJN_8devsweep8checkers8homebrew14check_homebrews6_0B7_
FNDA:0,_RNCNvNtNtCs3mbXwXxPNJN_8devsweep8checkers8homebrew14check_homebrews7_0B7_
FNDA:0,_RNCNvNtNtCs3mbXwXxPNJN_8devsweep8checkers8homebrew14check_homebrews8_0B7_
FNDA:0,_RNCNvNtNtCs3mbXwXxPNJN_8devsweep8checkers8homebrew14check_homebrews9_0B7_
FNDA:0,_RNCNvNtNtCs3mbXwXxPNJN_8devsweep8checkers8homebrew14check_homebrews_0B7_
FNDA:0,_RNCNvNtNtCs3mbXwXxPNJN_8devsweep8checkers8homebrew14check_homebrewsa_0B7_
FNDA:0,_RNvNtNtCs3mbXwXxPNJN_8devsweep8checkers8homebrew14check_homebrew
FNF:17
FNH:15
DA:10,10
DA:11,10
DA:14,10
DA:15,10
DA:16,0
DA:17,0
DA:18,10
DA:20,10
DA:23,10
DA:24,10
DA:25,10
DA:26,0
DA:27,0
DA:29,0
DA:31,0
DA:32,10
DA:35,10
DA:36,10
DA:37,10
DA:38,10
DA:39,10
DA:40,10
DA:41,10
DA:42,10
DA:43,10
DA:44,10
DA:45,0
DA:46,0
DA:49,10
DA:50,10
DA:51,10
DA:52,1450
DA:55,10
DA:56,10
DA:57,1450
DA:58,1450
DA:59,1450
DA:60,10
DA:61,1440
DA:63,1440
DA:65,1440
DA:66,1440
DA:67,2650
DA:68,2650
DA:69,2650
DA:70,1440
DA:72,1440
DA:73,330
DA:74,330
DA:75,330
DA:78,330
DA:79,330
DA:80,1210
DA:81,330
DA:83,330
DA:85,320
DA:86,320
DA:87,320
DA:88,320
DA:89,320
DA:90,320
DA:92,10
DA:95,1110
DA:97,1450
DA:98,10
DA:100,10
DA:102,10
DA:103,2070
DA:105,10
DA:106,10
DA:107,10
DA:108,150
DA:109,150
DA:110,150
DA:111,150
DA:112,10
DA:114,10
DA:115,10
DA:116,10
DA:117,10
DA:119,10
DA:120,10
DA:121,10
DA:122,10
DA:123,10
DA:124,0
DA:125,0
DA:128,10
DA:129,10
DA:130,1450
DA:131,1450
DA:132,1450
DA:133,1440
DA:134,1440
DA:135,60
DA:136,60
DA:137,60
DA:138,60
DA:139,60
DA:140,60
DA:141,60
DA:142,1380
DA:143,10
DA:145,0
DA:146,10
DA:147,90
DA:148,10
DA:149,0
DA:150,0
DA:153,10
DA:154,10
DA:155,10
DA:156,10
DA:158,10
DA:159,40
DA:160,40
DA:161,40
DA:162,40
DA:163,40
DA:164,20
DA:165,20
DA:166,20
DA:167,20
DA:168,20
DA:169,20
DA:170,20
DA:171,20
DA:172,20
DA:173,0
DA:175,0
DA:177,10
DA:178,10
DA:180,10
DA:181,10
DA:182,10
DA:183,20
DA:184,10
DA:186,10
DA:187,10
DA:188,10
DA:189,10
DA:191,10
DA:192,10
DA:193,10
DA:194,10
DA:195,10
DA:196,0
DA:197,0
DA:200,10
DA:201,310
DA:202,10
DA:204,10
DA:205,10
DA:206,10
DA:207,10
DA:208,10
DA:209,10
DA:210,10
DA:211,10
DA:212,10
DA:213,10
DA:214,10
DA:215,10
DA:216,10
DA:217,10
DA:218,10
DA:219,10
DA:220,10
DA:221,10
DA:222,10
DA:224,10
DA:225,10
DA:227,320
DA:228,310
DA:229,0
DA:230,0
DA:231,0
DA:233,0
DA:235,0
DA:236,0
DA:237,0
DA:238,0
DA:239,0
DA:240,0
DA:241,0
DA:242,310
DA:245,10
DA:246,0
DA:247,0
DA:248,0
DA:249,0
DA:250,0
DA:251,0
DA:253,0
DA:254,0
DA:255,0
DA:256,0
DA:258,0
DA:259,0
DA:260,0
DA:261,0
DA:262,10
DA:263,0
DA:265,10
DA:266,10
BRF:0
BRH:0
LF:221
LH:176
end_of_record
SF:/Users/canggih/Documents/Kedata/cleanstorage/dev-cleaner/src/checkers/ide.rs
FN:4,_RNvNtNtCshVE6m5yoyjE_8devsweep8checkers3ide16check_ide_caches
FN:4,_RNvNtNtCs3mbXwXxPNJN_8devsweep8checkers3ide16check_ide_caches
FNDA:10,_RNvNtNtCshVE6m5yoyjE_8devsweep8checkers3ide16check_ide_caches
FNDA:0,_RNvNtNtCs3mbXwXxPNJN_8devsweep8checkers3ide16check_ide_caches
FNF:1
FNH:1
DA:4,10
DA:5,10
DA:7,10
DA:9,10
DA:10,10
DA:11,10
DA:12,10
DA:13,10
DA:14,10
DA:15,10
DA:16,10
DA:17,10
DA:18,10
DA:19,10
DA:20,10
DA:21,10
DA:22,10
DA:23,10
DA:24,10
DA:26,60
DA:27,50
DA:28,50
DA:29,50
DA:30,50
DA:31,40
DA:32,40
DA:33,40
DA:34,40
DA:35,40
DA:36,40
DA:37,0
DA:42,10
DA:43,10
DA:44,0
DA:45,0
DA:46,0
DA:47,0
DA:48,0
DA:49,0
DA:50,0
DA:51,0
DA:52,0
DA:53,0
DA:54,0
DA:55,0
DA:56,0
DA:57,0
DA:58,0
DA:59,0
DA:60,0
DA:61,0
DA:63,0
DA:64,10
DA:67,10
DA:68,10
DA:69,10
DA:70,10
DA:71,10
DA:72,10
DA:73,10
DA:74,0
DA:75,0
DA:76,0
DA:77,0
DA:78,0
DA:79,0
DA:80,0
DA:81,0
DA:82,0
DA:83,0
DA:84,0
DA:85,0
DA:86,10
DA:88,0
DA:89,0
DA:90,0
DA:92,10
DA:93,10
BRF:0
BRH:0
LF:78
LH:43
end_of_record
SF:/Users/canggih/Documents/Kedata/cleanstorage/dev-cleaner/src/checkers/java.rs
FN:4,_RNvNtNtCshVE6m5yoyjE_8devsweep8checkers4java18check_gradle_maven
FN:4,_RNvNtNtCs3mbXwXxPNJN_8devsweep8checkers4java18check_gradle_maven
FNDA:10,_RNvNtNtCshVE6m5yoyjE_8devsweep8checkers4java18check_gradle_maven
FNDA:0,_RNvNtNtCs3mbXwXxPNJN_8devsweep8checkers4java18check_gradle_maven
FNF:1
FNH:1
DA:4,10
DA:5,10
DA:7,10
DA:8,10
DA:9,0
DA:13,10
DA:14,10
DA:15,0
DA:16,0
DA:17,0
DA:18,0
DA:19,0
DA:20,0
DA:21,0
DA:22,10
DA:25,10
DA:26,10
DA:27,10
DA:28,10
DA:29,10
DA:30,10
DA:31,10
DA:32,10
DA:33,10
DA:34,0
DA:37,10
DA:38,10
DA:39,0
DA:40,0
DA:41,0
DA:42,0
DA:43,0
DA:44,0
DA:45,0
DA:46,10
DA:48,10
DA:49,10
BRF:0
BRH:0
LF:37
LH:21
end_of_record
SF:/Users/canggih/Documents/Kedata/cleanstorage/dev-cleaner/src/checkers/logs.rs
FN:220,_RNvNtNtCshVE6m5yoyjE_8devsweep8checkers4logs14check_app_logs
FN:29,_RNvNtNtCshVE6m5yoyjE_8devsweep8checkers4logs15check_user_logs
FN:6,_RNvNtNtCshVE6m5yoyjE_8devsweep8checkers4logs17check_system_logs
FN:80,_RNvNtNtCshVE6m5yoyjE_8devsweep8checkers4logs19check_crash_reports
FN:357,_RNvNtNtCshVE6m5yoyjE_8devsweep8checkers4logs23check_system_level_logs
FN:148,_RNvNtNtCshVE6m5yoyjE_8devsweep8checkers4logs24check_system_diagnostics
FN:344,_RNCNvNtNtCshVE6m5yoyjE_8devsweep8checkers4logs14check_app_logs0B7_
FN:52,_RNCNvNtNtCshVE6m5yoyjE_8devsweep8checkers4logs15check_user_logs0B7_
FN:64,_RNCNvNtNtCshVE6m5yoyjE_8devsweep8checkers4logs15check_user_logss_0B7_
FN:344,_RNCNvNtNtCs3mbXwXxPNJN_8devsweep8checkers4logs14check_app_logs0B7_
FN:52,_RNCNvNtNtCs3mbXwXxPNJN_8devsweep8checkers4logs15check_user_logs0B7_
FN:64,_RNCNvNtNtCs3mbXwXxPNJN_8devsweep8checkers4logs15check_user_logss_0B7_
FN:220,_RNvNtNtCs3mbXwXxPNJN_8devsweep8checkers4logs14check_app_logs
FN:29,_RNvNtNtCs3mbXwXxPNJN_8devsweep8checkers4logs15check_user_logs
FN:6,_RNvNtNtCs3mbXwXxPNJN_8devsweep8checkers4logs17check_system_logs
FN:80,_RNvNtNtCs3mbXwXxPNJN_8devsweep8checkers4logs19check_crash_reports
FN:357,_RNvNtNtCs3mbXwXxPNJN_8devsweep8checkers4logs23check_system_level_logs
FN:148,_RNvNtNtCs3mbXwXxPNJN_8devsweep8checkers4logs24check_system_diagnostics
FNDA:10,_RNvNtNtCshVE6m5yoyjE_8devsweep8checkers4logs14check_app_logs
FNDA:10,_RNvNtNtCshVE6m5yoyjE_8devsweep8checkers4logs15check_user_logs
FNDA:10,_RNvNtNtCshVE6m5yoyjE_8devsweep8checkers4logs17check_system_logs
FNDA:10,_RNvNtNtCshVE6m5yoyjE_8devsweep8checkers4logs19check_crash_reports
FNDA:10,_RNvNtNtCshVE6m5yoyjE_8devsweep8checkers4logs23check_system_level_logs
FNDA:10,_RNvNtNtCshVE6m5yoyjE_8devsweep8checkers4logs24check_system_diagnostics
FNDA:10,_RNCNvNtNtCshVE6m5yoyjE_8devsweep8checkers4logs14check_app_logs0B7_
FNDA:40,_RNCNvNtNtCshVE6m5yoyjE_8devsweep8checkers4logs15check_user_logs0B7_
FNDA:0,_RNCNvNtNtCshVE6m5yoyjE_8devsweep8checkers4logs15check_user_logss_0B7_
FNDA:0,_RNCNvNtNtCs3mbXwXxPNJN_8devsweep8checkers4logs14check_app_logs0B7_
FNDA:0,_RNCNvNtNtCs3mbXwXxPNJN_8devsweep8checkers4logs15check_user_logs0B7_
FNDA:0,_RNCNvNtNtCs3mbXwXxPNJN_8devsweep8checkers4logs15check_user_logss_0B7_
FNDA:0,_RNvNtNtCs3mbXwXxPNJN_8devsweep8checkers4logs14check_app_logs
FNDA:0,_RNvNtNtCs3mbXwXxPNJN_8devsweep8checkers4logs15check_user_logs
FNDA:0,_RNvNtNtCs3mbXwXxPNJN_8devsweep8checkers4logs17check_system_logs
FNDA:0,_RNvNtNtCs3mbXwXxPNJN_8devsweep8checkers4logs19check_crash_reports
FNDA:0,_RNvNtNtCs3mbXwXxPNJN_8devsweep8checkers4logs23check_system_level_logs
FNDA:0,_RNvNtNtCs3mbXwXxPNJN_8devsweep8checkers4logs24check_system_diagnostics
FNF:9
FNH:8
DA:6,10
DA:7,10
DA:9,10
DA:10,10
DA:11,10
DA:12,10
DA:13,10
DA:14,10
DA:15,10
DA:16,10
DA:17,10
DA:18,10
DA:19,10
DA:20,10
DA:21,10
DA:24,10
DA:26,10
DA:27,10
DA:29,10
DA:30,10
DA:31,10
DA:32,0
DA:33,10
DA:35,10
DA:36,10
DA:39,10
DA:40,430
DA:41,430
DA:42,430
DA:45,430
DA:46,10
DA:47,420
DA:49,420
DA:50,380
DA:52,40
DA:56,420
DA:57,0
DA:58,0
DA:59,420
DA:61,0
DA:63,10
DA:64,0
DA:65,0
DA:66,0
DA:67,0
DA:68,0
DA:69,0
DA:71,0
DA:72,0
DA:73,0
DA:74,0
DA:77,10
DA:78,10
DA:80,10
DA:81,10
DA:82,10
DA:85,10
DA:86,10
DA:87,10
DA:88,10
DA:89,0
DA:90,0
DA:91,0
DA:92,0
DA:93,0
DA:94,0
DA:95,10
DA:96,0
DA:99,10
DA:100,10
DA:101,10
DA:102,10
DA:103,0
DA:104,10
DA:105,0
DA:108,10
DA:109,10
DA:110,0
DA:111,0
DA:112,0
DA:113,0
DA:114,0
DA:115,0
DA:116,0
DA:117,0
DA:118,0
DA:119,10
DA:122,10
DA:123,10
DA:124,0
DA:125,0
DA:126,0
DA:127,0
DA:128,0
DA:129,0
DA:130,0
DA:131,0
DA:132,0
DA:133,10
DA:135,10
DA:136,0
DA:137,0
DA:138,0
DA:139,0
DA:140,0
DA:141,0
DA:142,0
DA:143,0
DA:144,0
DA:145,10
DA:146,10
DA:148,10
DA:149,10
DA:150,10
DA:153,10
DA:154,10
DA:155,0
DA:156,0
DA:157,0
DA:158,0
DA:159,0
DA:160,0
DA:161,0
DA:162,0
DA:163,0
DA:164,10
DA:167,10
DA:168,10
DA:169,0
DA:170,0
DA:171,0
DA:172,0
DA:173,0
DA:174,0
DA:175,0
DA:176,0
DA:177,0
DA:178,10
DA:181,10
DA:182,10
DA:183,0
DA:184,0
DA:185,0
DA:186,0
DA:187,0
DA:188,0
DA:189,0
DA:190,0
DA:191,10
DA:194,10
DA:195,10
DA:196,0
DA:197,0
DA:198,0
DA:199,0
DA:200,0
DA:201,0
DA:202,0
DA:203,0
DA:204,0
DA:205,10
DA:207,10
DA:208,0
DA:209,0
DA:210,0
DA:211,0
DA:212,0
DA:213,0
DA:214,0
DA:215,0
DA:216,0
DA:217,10
DA:218,10
DA:220,10
DA:221,10
DA:222,10
DA:225,10
DA:226,10
DA:227,10
DA:228,10
DA:229,0
DA:230,0
DA:231,0
DA:232,0
DA:233,0
DA:234,10
DA:235,0
DA:238,10
DA:239,10
DA:240,0
DA:241,0
DA:242,0
DA:243,0
DA:244,0
DA:245,0
DA:246,0
DA:247,0
DA:248,0
DA:249,10
DA:252,10
DA:253,10
DA:254,0
DA:255,0
DA:256,0
DA:257,0
DA:258,0
DA:259,0
DA:260,0
DA:261,0
DA:262,0
DA:263,10
DA:266,10
DA:267,10
DA:268,10
DA:269,10
DA:270,0
DA:271,0
DA:272,0
DA:273,0
DA:274,0
DA:275,0
DA:276,10
DA:277,0
DA:280,10
DA:281,10
DA:282,0
DA:283,0
DA:284,0
DA:285,0
DA:286,0
DA:287,0
DA:288,0
DA:289,0
DA:290,10
DA:293,10
DA:294,10
DA:295,10
DA:296,10
DA:297,10
DA:298,10
DA:299,10
DA:300,10
DA:301,10
DA:302,10
DA:303,0
DA:306,10
DA:307,10
DA:308,10
DA:309,10
DA:310,0
DA:311,0
DA:312,0
DA:313,0
DA:314,10
DA:315,0
DA:318,10
DA:319,10
DA:320,0
DA:321,0
DA:322,0
DA:323,0
DA:324,0
DA:325,0
DA:326,0
DA:327,0
DA:328,10
DA:331,10
DA:332,10
DA:333,10
DA:334,10
DA:335,10
DA:336,10
DA:337,10
DA:338,10
DA:339,10
DA:340,10
DA:341,0
DA:343,10
DA:344,10
DA:345,10
DA:346,10
DA:347,10
DA:348,10
DA:349,10
DA:351,10
DA:352,10
DA:354,0
DA:355,10
DA:357,10
DA:358,10
DA:359,10
DA:363,10
DA:364,10
DA:366,10
DA:367,10
DA:368,10
DA:369,10
DA:370,10
DA:373,50
DA:374,40
DA:375,40
DA:376,40
DA:377,40
DA:378,40
DA:379,0
DA:380,0
DA:381,0
DA:382,0
DA:383,0
DA:384,0
DA:385,0
DA:386,40
DA:387,0
DA:388,0
DA:392,10
DA:393,10
DA:394,10
DA:396,230
DA:397,230
DA:398,230
DA:399,120
DA:400,30
DA:401,30
DA:402,30
DA:403,30
DA:404,90
DA:405,110
DA:408,10
DA:409,0
DA:410,0
DA:411,0
DA:412,0
DA:413,0
DA:414,0
DA:415,0
DA:416,0
DA:417,0
DA:418,0
DA:419,0
DA:420,10
DA:421,0
DA:422,0
DA:425,10
DA:426,10
DA:428,10
DA:429,10
DA:430,10
DA:431,10
DA:432,0
DA:433,0
DA:434,0
DA:435,0
DA:436,0
DA:437,0
DA:438,0
DA:439,10
DA:440,0
DA:441,0
DA:443,10
DA:444,0
DA:445,0
DA:446,0
DA:447,0
DA:448,0
DA:449,0
DA:450,0
DA:451,0
DA:452,0
DA:453,10
DA:454,10
BRF:0
BRH:0
LF:373
LH:183
end_of_record
SF:/Users/canggih/Documents/Kedata/cleanstorage/dev-cleaner/src/checkers/nodejs.rs
FN:5,_RNvNtNtCshVE6m5yoyjE_8devsweep8checkers6nodejs14check_npm_yarn
FN:5,_RNvNtNtCs3mbXwXxPNJN_8devsweep8checkers6nodejs14check_npm_yarn
FN:78,_RNvNtNtNtCs3mbXwXxPNJN_8devsweep8checkers6nodejs5testss_24test_npm_cache_detection
FN:152,_RNvNtNtNtCs3mbXwXxPNJN_8devsweep8checkers6nodejs5testss_25test_safe_to_delete_flags
FN:91,_RNvNtNtNtCs3mbXwXxPNJN_8devsweep8checkers6nodejs5testss_25test_yarn_cache_detection
FN:122,_RNvNtNtNtCs3mbXwXxPNJN_8devsweep8checkers6nodejs5testss_27test_check_result_structure
FN:138,_RNvNtNtNtCs3mbXwXxPNJN_8devsweep8checkers6nodejs5testss_29test_cleanup_items_have_paths
FN:114,_RNvNtNtNtCs3mbXwXxPNJN_8devsweep8checkers6nodejs5testss_29test_global_node_modules_path
FN:103,_RNvNtNtNtCs3mbXwXxPNJN_8devsweep8checkers6nodejs5testss_33test_pnpm_cache_path_construction
FN:70,_RNvNtNtNtCs3mbXwXxPNJN_8devsweep8checkers6nodejs5testss_34test_check_npm_yarn_returns_result
FN:171,_RNvNtNtNtCs3mbXwXxPNJN_8devsweep8checkers6nodejs5testss_36test_global_node_modules_has_warning
FNDA:11,_RNvNtNtCshVE6m5yoyjE_8devsweep8checkers6nodejs14check_npm_yarn
FNDA:7,_RNvNtNtCs3mbXwXxPNJN_8devsweep8checkers6nodejs14check_npm_yarn
FNDA:1,_RNvNtNtNtCs3mbXwXxPNJN_8devsweep8checkers6nodejs5testss_24test_npm_cache_detection
FNDA:1,_RNvNtNtNtCs3mbXwXxPNJN_8devsweep8checkers6nodejs5testss_25test_safe_to_delete_flags
FNDA:1,_RNvNtNtNtCs3mbXwXxPNJN_8devsweep8checkers6nodejs5testss_25test_yarn_cache_detection
FNDA:1,_RNvNtNtNtCs3mbXwXxPNJN_8devsweep8checkers6nodejs5testss_27test_check_result_structure
FNDA:1,_RNvNtNtNtCs3mbXwXxPNJN_8devsweep8checkers6nodejs5testss_29test_cleanup_items_have_paths
FNDA:1,_RNvNtNtNtCs3mbXwXxPNJN_8devsweep8checkers6nodejs5testss_29test_global_node_modules_path
FNDA:1,_RNvNtNtNtCs3mbXwXxPNJN_8devsweep8checkers6nodejs5testss_33test_pnpm_cache_path_construction
FNDA:1,_RNvNtNtNtCs3mbXwXxPNJN_8devsweep8checkers6nodejs5testss_34test_check_npm_yarn_returns_result
FNDA:1,_RNvNtNtNtCs3mbXwXxPNJN_8devsweep8checkers6nodejs5testss_36test_global_node_modules_has_warning
FNF:10
FNH:10
DA:5,18
DA:6,18
DA:9,18
DA:10,18
DA:11,18
DA:12,18
DA:13,18
DA:14,18
DA:15,18
DA:16,18
DA:17,18
DA:18,18
DA:19,0
DA:20,0
DA:23,18
DA:24,18
DA:25,18
DA:26,18
DA:27,18
DA:28,0
DA:29,0
DA:30,0
DA:31,0
DA:32,18
DA:33,0
DA:34,0
DA:37,18
DA:38,18
DA:39,18
DA:40,0
DA:41,0
DA:42,0
DA:43,0
DA:44,0
DA:45,0
DA:46,0
DA:47,18
DA:48,0
DA:51,18
DA:52,18
DA:53,18
DA:54,18
DA:55,18
DA:56,18
DA:57,18
DA:58,18
DA:59,18
DA:60,18
DA:61,0
DA:63,18
DA:64,18
DA:70,1
DA:71,1
DA:72,1
DA:75,1
DA:78,1
DA:81,1
DA:84,1
DA:85,1
DA:86,1
DA:87,1
DA:88,1
DA:91,1
DA:93,1
DA:96,1
DA:97,1
DA:98,1
DA:99,1
DA:100,1
DA:103,1
DA:105,1
DA:106,1
DA:108,1
DA:109,1
DA:110,0
DA:111,1
DA:114,1
DA:115,1
DA:117,1
DA:118,1
DA:119,1
DA:122,1
DA:123,1
DA:126,1
DA:127,1
DA:130,3
DA:131,2
DA:133,2
DA:135,1
DA:138,1
DA:139,1
DA:142,3
DA:143,2
DA:144,2
DA:145,0
DA:149,1
DA:152,1
DA:153,1
DA:156,3
DA:157,2
DA:158,1
DA:159,1
DA:161,1
DA:162,1
DA:163,0
DA:166,1
DA:168,1
DA:171,1
DA:172,1
DA:175,3
DA:176,2
DA:177,1
DA:178,1
DA:179,0
DA:181,1
DA:182,1
DA:183,1
DA:184,1
DA:185,1
DA:186,1
DA:188,1
BRF:0
BRH:0
LF:121
LH:100
end_of_record
SF:/Users/canggih/Documents/Kedata/cleanstorage/dev-cleaner/src/checkers/python.rs
FN:34,_RNCNCNvNtNtCshVE6m5yoyjE_8devsweep8checkers6python12check_python00B9_
FN:36,_RNCNCNvNtNtCshVE6m5yoyjE_8devsweep8checkers6python12check_python0s0_0B9_
FN:35,_RNCNCNvNtNtCshVE6m5yoyjE_8devsweep8checkers6python12check_python0s_0B9_
FN:87,_RNCNCNvNtNtCshVE6m5yoyjE_8devsweep8checkers6python12check_pythons0_00B9_
FN:89,_RNCNCNvNtNtCshVE6m5yoyjE_8devsweep8checkers6python12check_pythons0_0s0_0B9_
FN:88,_RNCNCNvNtNtCshVE6m5yoyjE_8devsweep8checkers6python12check_pythons0_0s_0B9_
FN:32,_RNCNvNtNtCshVE6m5yoyjE_8devsweep8checkers6python12check_python0B7_
FN:85,_RNCNvNtNtCshVE6m5yoyjE_8devsweep8checkers6python12check_pythons0_0B7_
FN:97,_RNCNvNtNtCshVE6m5yoyjE_8devsweep8checkers6python12check_pythons1_0B7_
FN:44,_RNCNvNtNtCshVE6m5yoyjE_8devsweep8checkers6python12check_pythons_0B7_
FN:5,_RNvNtNtCshVE6m5yoyjE_8devsweep8checkers6python12check_python
FN:34,_RNCNCNvNtNtCs3mbXwXxPNJN_8devsweep8checkers6python12check_python00B9_
FN:36,_RNCNCNvNtNtCs3mbXwXxPNJN_8devsweep8checkers6python12check_python0s0_0B9_
FN:35,_RNCNCNvNtNtCs3mbXwXxPNJN_8devsweep8checkers6python12check_python0s_0B9_
FN:87,_RNCNCNvNtNtCs3mbXwXxPNJN_8devsweep8checkers6python12check_pythons0_00B9_
FN:89,_RNCNCNvNtNtCs3mbXwXxPNJN_8devsweep8checkers6python12check_pythons0_0s0_0B9_
FN:88,_RNCNCNvNtNtCs3mbXwXxPNJN_8devsweep8checkers6python12check_pythons0_0s_0B9_
FN:32,_RNCNvNtNtCs3mbXwXxPNJN_8devsweep8checkers6python12check_python0B7_
FN:85,_RNCNvNtNtCs3mbXwXxPNJN_8devsweep8checkers6python12check_pythons0_0B7_
FN:97,_RNCNvNtNtCs3mbXwXxPNJN_8devsweep8checkers6python12check_pythons1_0B7_
FN:44,_RNCNvNtNtCs3mbXwXxPNJN_8devsweep8checkers6python12check_pythons_0B7_
FN:5,_RNvNtNtCs3mbXwXxPNJN_8devsweep8checkers6python12check_python
FNDA:0,_RNCNCNvNtNtCshVE6m5yoyjE_8devsweep8checkers6python12check_python00B9_
FNDA:0,_RNCNCNvNtNtCshVE6m5yoyjE_8devsweep8checkers6python12check_python0s0_0B9_
FNDA:0,_RNCNCNvNtNtCshVE6m5yoyjE_8devsweep8checkers6python12check_python0s_0B9_
FNDA:0,_RNCNCNvNtNtCshVE6m5yoyjE_8devsweep8checkers6python12check_pythons0_00B9_
FNDA:0,_RNCNCNvNtNtCshVE6m5yoyjE_8devsweep8checkers6python12check_pythons0_0s0_0B9_
FNDA:0,_RNCNCNvNtNtCshVE6m5yoyjE_8devsweep8checkers6python12check_pythons0_0s_0B9_
FNDA:0,_RNCNvNtNtCshVE6m5yoyjE_8devsweep8checkers6python12check_python0B7_
FNDA:0,_RNCNvNtNtCshVE6m5yoyjE_8devsweep8checkers6python12check_pythons0_0B7_
FNDA:0,_RNCNvNtNtCshVE6m5yoyjE_8devsweep8checkers6python12check_pythons1_0B7_
FNDA:0,_RNCNvNtNtCshVE6m5yoyjE_8devsweep8checkers6python12check_pythons_0B7_
FNDA:10,_RNvNtNtCshVE6m5yoyjE_8devsweep8checkers6python12check_python
FNDA:0,_RNCNCNvNtNtCs3mbXwXxPNJN_8devsweep8checkers6python12check_python00B9_
FNDA:0,_RNCNCNvNtNtCs3mbXwXxPNJN_8devsweep8checkers6python12check_python0s0_0B9_
FNDA:0,_RNCNCNvNtNtCs3mbXwXxPNJN_8devsweep8checkers6python12check_python0s_0B9_
FNDA:0,_RNCNCNvNtNtCs3mbXwXxPNJN_8devsweep8checkers6python12check_pythons0_00B9_
FNDA:0,_RNCNCNvNtNtCs3mbXwXxPNJN_8devsweep8checkers6python12check_pythons0_0s0_0B9_
FNDA:0,_RNCNCNvNtNtCs3mbXwXxPNJN_8devsweep8checkers6python12check_pythons0_0s_0B9_
FNDA:0,_RNCNvNtNtCs3mbXwXxPNJN_8devsweep8checkers6python12check_python0B7_
FNDA:0,_RNCNvNtNtCs3mbXwXxPNJN_8devsweep8checkers6python12check_pythons0_0B7_
FNDA:0,_RNCNvNtNtCs3mbXwXxPNJN_8devsweep8checkers6python12check_pythons1_0B7_
FNDA:0,_RNCNvNtNtCs3mbXwXxPNJN_8devsweep8checkers6python12check_pythons_0B7_
FNDA:0,_RNvNtNtCs3mbXwXxPNJN_8devsweep8checkers6python12check_python
FNF:11
FNH:1
DA:5,10
DA:6,10
DA:8,10
DA:9,10
DA:10,0
DA:14,10
DA:15,10
DA:16,10
DA:17,10
DA:18,10
DA:19,10
DA:20,10
DA:21,10
DA:22,10
DA:23,0
DA:26,10
DA:27,10
DA:28,0
DA:29,0
DA:30,0
DA:31,0
DA:32,0
DA:33,0
DA:34,0
DA:35,0
DA:36,0
DA:37,0
DA:38,0
DA:39,0
DA:41,0
DA:42,0
DA:43,0
DA:44,0
DA:45,0
DA:46,0
DA:47,0
DA:48,0
DA:49,0
DA:51,0
DA:52,0
DA:53,0
DA:54,0
DA:55,0
DA:56,0
DA:57,10
DA:60,30
DA:61,20
DA:62,20
DA:63,0
DA:64,0
DA:65,0
DA:66,0
DA:67,0
DA:68,0
DA:70,0
DA:71,0
DA:72,0
DA:73,0
DA:74,0
DA:75,20
DA:79,10
DA:80,10
DA:81,0
DA:82,0
DA:83,0
DA:84,0
DA:85,0
DA:86,0
DA:87,0
DA:88,0
DA:89,0
DA:90,0
DA:91,0
DA:92,0
DA:94,0
DA:95,0
DA:96,0
DA:97,0
DA:98,0
DA:99,0
DA:100,0
DA:101,0
DA:102,0
DA:104,0
DA:105,0
DA:106,0
DA:107,0
DA:108,0
DA:109,0
DA:110,10
DA:112,10
DA:113,10
BRF:0
BRH:0
LF:102
LH:25
end_of_record
SF:/Users/canggih/Documents/Kedata/cleanstorage/dev-cleaner/src/checkers/rust_cargo.rs
FN:5,_RNvNtNtCshVE6m5yoyjE_8devsweep8checkers10rust_cargo10check_rust
FN:53,_RNCNvNtNtCshVE6m5yoyjE_8devsweep8checkers10rust_cargo10check_rust0B7_
FN:77,_RNCNvNtNtCshVE6m5yoyjE_8devsweep8checkers10rust_cargo10check_rusts0_0B7_
FN:57,_RNCNvNtNtCshVE6m5yoyjE_8devsweep8checkers10rust_cargo10check_rusts_0B7_
FN:53,_RNCNvNtNtCs3mbXwXxPNJN_8devsweep8checkers10rust_cargo10check_rust0B7_
FN:77,_RNCNvNtNtCs3mbXwXxPNJN_8devsweep8checkers10rust_cargo10check_rusts0_0B7_
FN:57,_RNCNvNtNtCs3mbXwXxPNJN_8devsweep8checkers10rust_cargo10check_rusts_0B7_
FN:5,_RNvNtNtCs3mbXwXxPNJN_8devsweep8checkers10rust_cargo10check_rust
FNDA:10,_RNvNtNtCshVE6m5yoyjE_8devsweep8checkers10rust_cargo10check_rust
FNDA:40,_RNCNvNtNtCshVE6m5yoyjE_8devsweep8checkers10rust_cargo10check_rust0B7_
FNDA:10,_RNCNvNtNtCshVE6m5yoyjE_8devsweep8checkers10rust_cargo10check_rusts0_0B7_
FNDA:304260,_RNCNvNtNtCshVE6m5yoyjE_8devsweep8checkers10rust_cargo10check_rusts_0B7_
FNDA:0,_RNCNvNtNtCs3mbXwXxPNJN_8devsweep8checkers10rust_cargo10check_rust0B7_
FNDA:0,_RNCNvNtNtCs3mbXwXxPNJN_8devsweep8checkers10rust_cargo10check_rusts0_0B7_
FNDA:0,_RNCNvNtNtCs3mbXwXxPNJN_8devsweep8checkers10rust_cargo10check_rusts_0B7_
FNDA:0,_RNvNtNtCs3mbXwXxPNJN_8devsweep8checkers10rust_cargo10check_rust
FNF:4
FNH:4
DA:5,10
DA:6,10
DA:8,10
DA:9,10
DA:10,0
DA:13,10
DA:14,10
DA:15,0
DA:16,0
DA:17,10
DA:20,10
DA:21,10
DA:22,10
DA:23,10
DA:24,10
DA:25,10
DA:26,10
DA:27,10
DA:28,10
DA:29,0
DA:32,10
DA:33,10
DA:34,10
DA:35,10
DA:36,10
DA:37,10
DA:38,10
DA:39,10
DA:40,10
DA:41,0
DA:44,10
DA:45,10
DA:46,10
DA:47,10
DA:48,10
DA:49,10
DA:51,10
DA:53,40
DA:54,304260
DA:55,10
DA:56,10
DA:57,304260
DA:59,304260
DA:62,304260
DA:63,50
DA:64,50
DA:65,30
DA:66,30
DA:67,20
DA:68,20
DA:69,20
DA:70,20
DA:71,304210
DA:77,10
DA:78,30
DA:79,20
DA:80,20
DA:81,20
DA:82,20
DA:83,20
DA:84,20
DA:85,20
DA:86,20
DA:87,20
DA:88,20
DA:89,20
DA:90,20
DA:91,20
DA:92,20
DA:93,20
DA:94,20
DA:95,20
DA:96,20
DA:97,20
DA:98,20
DA:99,20
DA:100,20
DA:102,10
DA:103,10
BRF:0
BRH:0
LF:82
LH:77
end_of_record
SF:/Users/canggih/Documents/Kedata/cleanstorage/dev-cleaner/src/checkers/shell.rs
FN:4,_RNvNtNtCshVE6m5yoyjE_8devsweep8checkers5shell18check_shell_caches
FN:26,_RNCNvNtNtCshVE6m5yoyjE_8devsweep8checkers5shell18check_shell_caches0B7_
FN:26,_RNCNvNtNtCs3mbXwXxPNJN_8devsweep8checkers5shell18check_shell_caches0B7_
FN:4,_RNvNtNtCs3mbXwXxPNJN_8devsweep8checkers5shell18check_shell_caches
FNDA:10,_RNvNtNtCshVE6m5yoyjE_8devsweep8checkers5shell18check_shell_caches
FNDA:1240,_RNCNvNtNtCshVE6m5yoyjE_8devsweep8checkers5shell18check_shell_caches0B7_
FNDA:0,_RNCNvNtNtCs3mbXwXxPNJN_8devsweep8checkers5shell18check_shell_caches0B7_
FNDA:0,_RNvNtNtCs3mbXwXxPNJN_8devsweep8checkers5shell18check_shell_caches
FNF:2
FNH:2
DA:4,10
DA:5,10
DA:7,10
DA:10,10
DA:11,10
DA:12,0
DA:13,0
DA:14,0
DA:15,0
DA:16,0
DA:17,0
DA:18,0
DA:19,0
DA:20,10
DA:23,10
DA:24,1240
DA:25,1240
DA:26,1240
DA:27,1240
DA:28,10
DA:29,10
DA:30,10
DA:31,10
DA:32,10
DA:33,10
DA:34,10
DA:35,10
DA:36,10
DA:37,10
DA:38,10
DA:39,10
DA:40,1230
DA:41,0
DA:43,0
DA:46,10
DA:47,10
DA:48,10
DA:49,10
DA:50,10
DA:51,10
DA:52,10
DA:53,10
DA:54,10
DA:55,10
DA:56,0
DA:60,10
DA:61,10
DA:62,0
DA:63,0
DA:64,0
DA:65,0
DA:66,0
DA:67,0
DA:68,0
DA:69,0
DA:70,10
DA:74,10
DA:75,10
DA:76,0
DA:77,0
DA:78,0
DA:79,0
DA:80,0
DA:81,0
DA:82,0
DA:83,0
DA:84,10
DA:86,10
DA:87,10
DA:88,0
DA:89,0
DA:90,0
DA:91,0
DA:92,0
DA:93,0
DA:94,0
DA:95,0
DA:96,10
DA:99,10
DA:100,10
DA:101,0
DA:102,0
DA:103,0
DA:104,0
DA:105,0
DA:106,0
DA:107,0
DA:108,0
DA:109,10
DA:110,0
DA:112,10
DA:113,10
BRF:0
BRH:0
LF:93
LH:49
end_of_record
SF:/Users/canggih/Documents/Kedata/cleanstorage/dev-cleaner/src/checkers/xcode.rs
FN:4,_RNvNtNtCshVE6m5yoyjE_8devsweep8checkers5xcode11check_xcode
FN:4,_RNvNtNtCs3mbXwXxPNJN_8devsweep8checkers5xcode11check_xcode
FNDA:10,_RNvNtNtCshVE6m5yoyjE_8devsweep8checkers5xcode11check_xcode
FNDA:0,_RNvNtNtCs3mbXwXxPNJN_8devsweep8checkers5xcode11check_xcode
FNF:1
FNH:1
DA:4,10
DA:5,10
DA:7,10
DA:8,10
DA:9,0
DA:13,10
DA:14,10
DA:15,0
DA:16,0
DA:17,0
DA:18,0
DA:19,0
DA:20,0
DA:21,0
DA:22,10
DA:25,10
DA:26,10
DA:27,0
DA:28,0
DA:29,0
DA:30,0
DA:31,0
DA:32,0
DA:33,0
DA:34,10
DA:37,10
DA:38,10
DA:39,0
DA:40,0
DA:41,0
DA:42,0
DA:43,0
DA:44,0
DA:45,0
DA:46,10
DA:49,10
DA:50,10
DA:51,0
DA:52,0
DA:53,0
DA:54,0
DA:55,0
DA:56,0
DA:57,0
DA:58,10
DA:61,10
DA:62,10
DA:63,10
DA:64,10
DA:65,10
DA:66,10
DA:67,10
DA:68,10
DA:69,10
DA:70,10
DA:71,0
DA:74,10
DA:75,10
DA:76,0
DA:77,0
DA:78,0
DA:79,0
DA:80,0
DA:81,0
DA:82,0
DA:83,10
DA:85,10
DA:86,10
BRF:0
BRH:0
LF:68
LH:31
end_of_record
SF:/Users/canggih/Documents/Kedata/cleanstorage/dev-cleaner/src/cleanup_history.rs
FN:49,_RNvMNtCshVE6m5yoyjE_8devsweep15cleanup_historyNtB2_13CleanupRecord11is_undoable
FN:27,_RNvMNtCshVE6m5yoyjE_8devsweep15cleanup_historyNtB2_13CleanupRecord3new
FN:39,_RNvMNtCshVE6m5yoyjE_8devsweep15cleanup_historyNtB2_13CleanupRecord8add_item
FN:164,_RNvMs0_NtCshVE6m5yoyjE_8devsweep15cleanup_historyNtB5_14CleanupHistory10add_record
FN:185,_RNvMs0_NtCshVE6m5yoyjE_8devsweep15cleanup_historyNtB5_14CleanupHistory10get_record
FN:180,_RNvMs0_NtCshVE6m5yoyjE_8devsweep15cleanup_historyNtB5_14CleanupHistory11get_records
FN:227,_RNvMs0_NtCshVE6m5yoyjE_8devsweep15cleanup_historyNtB5_14CleanupHistory12restore_item
FN:190,_RNvMs0_NtCshVE6m5yoyjE_8devsweep15cleanup_historyNtB5_14CleanupHistory15quarantine_item
FN:150,_RNvMs0_NtCshVE6m5yoyjE_8devsweep15cleanup_historyNtB5_14CleanupHistory17history_file_path
FN:158,_RNvMs0_NtCshVE6m5yoyjE_8devsweep15cleanup_historyNtB5_14CleanupHistory18get_quarantine_dir
FN:343,_RNvMs0_NtCshVE6m5yoyjE_8devsweep15cleanup_historyNtB5_14CleanupHistory19get_quarantine_size
FN:377,_RNvMs0_NtCshVE6m5yoyjE_8devsweep15cleanup_historyNtB5_14CleanupHistory22delete_quarantine_item
FN:328,_RNvMs0_NtCshVE6m5yoyjE_8devsweep15cleanup_historyNtB5_14CleanupHistory29cleanup_quarantine_for_record
FN:358,_RNvMs0_NtCshVE6m5yoyjE_8devsweep15cleanup_historyNtB5_14CleanupHistory32cleanup_old_quarantine_if_needed
FN:103,_RNvMs0_NtCshVE6m5yoyjE_8devsweep15cleanup_historyNtB5_14CleanupHistory3new
FN:114,_RNvMs0_NtCshVE6m5yoyjE_8devsweep15cleanup_historyNtB5_14CleanupHistory4load
FN:131,_RNvMs0_NtCshVE6m5yoyjE_8devsweep15cleanup_historyNtB5_14CleanupHistory4save
FN:263,_RNvMs0_NtCshVE6m5yoyjE_8devsweep15cleanup_historyNtB5_14CleanupHistory4undo
FN:429,_RNvMs0_NtCshVE6m5yoyjE_8devsweep15cleanup_historyNtB5_14CleanupHistory5stats
FN:308,_RNvMs0_NtCshVE6m5yoyjE_8devsweep15cleanup_historyNtB5_14CleanupHistory9clear_all
FN:91,_RNvMs_NtCshVE6m5yoyjE_8devsweep15cleanup_historyNtB4_17CleanupItemRecord11can_restore
FN:79,_RNvMs_NtCshVE6m5yoyjE_8devsweep15cleanup_historyNtB4_17CleanupItemRecord5error
FN:67,_RNvMs_NtCshVE6m5yoyjE_8devsweep15cleanup_historyNtB4_17CleanupItemRecord7success
FN:444,_RNvXs1_NtCshVE6m5yoyjE_8devsweep15cleanup_historyNtB5_14CleanupHistoryNtNtCskzPJi2J8k3N_4core7default7Default7default
FN:186,_RNCNvMs0_NtCshVE6m5yoyjE_8devsweep15cleanup_historyNtB7_14CleanupHistory10get_record0B9_
FN:235,_RNCNvMs0_NtCshVE6m5yoyjE_8devsweep15cleanup_historyNtB7_14CleanupHistory12restore_item0B9_
FN:257,_RNCNvMs0_NtCshVE6m5yoyjE_8devsweep15cleanup_historyNtB7_14CleanupHistory12restore_items0_0B9_
FN:252,_RNCNvMs0_NtCshVE6m5yoyjE_8devsweep15cleanup_historyNtB7_14CleanupHistory12restore_items_0B9_
FN:194,_RNCNvMs0_NtCshVE6m5yoyjE_8devsweep15cleanup_historyNtB7_14CleanupHistory15quarantine_item0B9_
FN:217,_RNCNvMs0_NtCshVE6m5yoyjE_8devsweep15cleanup_historyNtB7_14CleanupHistory15quarantine_items0_0B9_
FN:221,_RNCNvMs0_NtCshVE6m5yoyjE_8devsweep15cleanup_historyNtB7_14CleanupHistory15quarantine_items1_0B9_
FN:208,_RNCNvMs0_NtCshVE6m5yoyjE_8devsweep15cleanup_historyNtB7_14CleanupHistory15quarantine_items_0B9_
FN:151,_RNCNvMs0_NtCshVE6m5yoyjE_8devsweep15cleanup_historyNtB7_14CleanupHistory17history_file_path0B9_
FN:159,_RNCNvMs0_NtCshVE6m5yoyjE_8devsweep15cleanup_historyNtB7_14CleanupHistory18get_quarantine_dir0B9_
FN:350,_RNCNvMs0_NtCshVE6m5yoyjE_8devsweep15cleanup_historyNtB7_14CleanupHistory19get_quarantine_size0B9_
FN:352,_RNCNvMs0_NtCshVE6m5yoyjE_8devsweep15cleanup_historyNtB7_14CleanupHistory19get_quarantine_sizes0_0B9_
FN:353,_RNCNvMs0_NtCshVE6m5yoyjE_8devsweep15cleanup_historyNtB7_14CleanupHistory19get_quarantine_sizes1_0B9_
FN:351,_RNCNvMs0_NtCshVE6m5yoyjE_8devsweep15cleanup_historyNtB7_14CleanupHistory19get_quarantine_sizes_0B9_
FN:386,_RNCNvMs0_NtCshVE6m5yoyjE_8devsweep15cleanup_historyNtB7_14CleanupHistory22delete_quarantine_item0B9_
FN:410,_RNCNvMs0_NtCshVE6m5yoyjE_8devsweep15cleanup_historyNtB7_14CleanupHistory22delete_quarantine_items0_0B9_
FN:387,_RNCNvMs0_NtCshVE6m5yoyjE_8devsweep15cleanup_historyNtB7_14CleanupHistory22delete_quarantine_items_0B9_
FN:137,_RNCNvMs0_NtCshVE6m5yoyjE_8devsweep15cleanup_historyNtB7_14CleanupHistory4save0B9_
FN:144,_RNCNvMs0_NtCshVE6m5yoyjE_8devsweep15cleanup_historyNtB7_14CleanupHistory4saves0_0B9_
FN:141,_RNCNvMs0_NtCshVE6m5yoyjE_8devsweep15cleanup_historyNtB7_14CleanupHistory4saves_0B9_
FN:266,_RNCNvMs0_NtCshVE6m5yoyjE_8devsweep15cleanup_historyNtB7_14CleanupHistory4undo0B9_
FN:294,_RNCNvMs0_NtCshVE6m5yoyjE_8devsweep15cleanup_historyNtB7_14CleanupHistory4undos_0B9_
FN:430,_RNCNvMs0_NtCshVE6m5yoyjE_8devsweep15cleanup_historyNtB7_14CleanupHistory5stats0B9_
FN:431,_RNCNvMs0_NtCshVE6m5yoyjE_8devsweep15cleanup_historyNtB7_14CleanupHistory5statss_0B9_
FN:312,_RNCNvMs0_NtCshVE6m5yoyjE_8devsweep15cleanup_historyNtB7_14CleanupHistory9clear_all0B9_
FN:317,_RNCNvMs0_NtCshVE6m5yoyjE_8devsweep15cleanup_historyNtB7_14CleanupHistory9clear_alls_0B9_
FN:235,_RNCNvMs0_NtCs3mbXwXxPNJN_8devsweep15cleanup_historyNtB7_14CleanupHistory12restore_item0B9_
FN:257,_RNCNvMs0_NtCs3mbXwXxPNJN_8devsweep15cleanup_historyNtB7_14CleanupHistory12restore_items0_0B9_
FN:252,_RNCNvMs0_NtCs3mbXwXxPNJN_8devsweep15cleanup_historyNtB7_14CleanupHistory12restore_items_0B9_
FN:194,_RNCNvMs0_NtCs3mbXwXxPNJN_8devsweep15cleanup_historyNtB7_14CleanupHistory15quarantine_item0B9_
FN:217,_RNCNvMs0_NtCs3mbXwXxPNJN_8devsweep15cleanup_historyNtB7_14CleanupHistory15quarantine_items0_0B9_
FN:221,_RNCNvMs0_NtCs3mbXwXxPNJN_8devsweep15cleanup_historyNtB7_14CleanupHistory15quarantine_items1_0B9_
FN:208,_RNCNvMs0_NtCs3mbXwXxPNJN_8devsweep15cleanup_historyNtB7_14CleanupHistory15quarantine_items_0B9_
FN:386,_RNCNvMs0_NtCs3mbXwXxPNJN_8devsweep15cleanup_historyNtB7_14CleanupHistory22delete_quarantine_item0B9_
FN:410,_RNCNvMs0_NtCs3mbXwXxPNJN_8devsweep15cleanup_historyNtB7_14CleanupHistory22delete_quarantine_items0_0B9_
FN:387,_RNCNvMs0_NtCs3mbXwXxPNJN_8devsweep15cleanup_historyNtB7_14CleanupHistory22delete_quarantine_items_0B9_
FN:266,_RNCNvMs0_NtCs3mbXwXxPNJN_8devsweep15cleanup_historyNtB7_14CleanupHistory4undo0B9_
FN:294,_RNCNvMs0_NtCs3mbXwXxPNJN_8devsweep15cleanup_historyNtB7_14CleanupHistory4undos_0B9_
FN:430,_RNCNvMs0_NtCs3mbXwXxPNJN_8devsweep15cleanup_historyNtB7_14CleanupHistory5stats0B9_
FN:431,_RNCNvMs0_NtCs3mbXwXxPNJN_8devsweep15cleanup_historyNtB7_14CleanupHistory5statss_0B9_
FN:312,_RNCNvMs0_NtCs3mbXwXxPNJN_8devsweep15cleanup_historyNtB7_14CleanupHistory9clear_all0B9_
FN:317,_RNCNvMs0_NtCs3mbXwXxPNJN_8devsweep15cleanup_historyNtB7_14CleanupHistory9clear_alls_0B9_
FN:49,_RNvMNtCs3mbXwXxPNJN_8devsweep15cleanup_historyNtB2_13CleanupRecord11is_undoable
FN:180,_RNvMs0_NtCs3mbXwXxPNJN_8devsweep15cleanup_historyNtB5_14CleanupHistory11get_records
FN:227,_RNvMs0_NtCs3mbXwXxPNJN_8devsweep15cleanup_historyNtB5_14CleanupHistory12restore_item
FN:190,_RNvMs0_NtCs3mbXwXxPNJN_8devsweep15cleanup_historyNtB5_14CleanupHistory15quarantine_item
FN:377,_RNvMs0_NtCs3mbXwXxPNJN_8devsweep15cleanup_historyNtB5_14CleanupHistory22delete_quarantine_item
FN:263,_RNvMs0_NtCs3mbXwXxPNJN_8devsweep15cleanup_historyNtB5_14CleanupHistory4undo
FN:429,_RNvMs0_NtCs3mbXwXxPNJN_8devsweep15cleanup_historyNtB5_14CleanupHistory5stats
FN:308,_RNvMs0_NtCs3mbXwXxPNJN_8devsweep15cleanup_historyNtB5_14CleanupHistory9clear_all
FN:91,_RNvMs_NtCs3mbXwXxPNJN_8devsweep15cleanup_historyNtB4_17CleanupItemRecord11can_restore
FN:79,_RNvMs_NtCs3mbXwXxPNJN_8devsweep15cleanup_historyNtB4_17CleanupItemRecord5error
FN:444,_RNvXs1_NtCs3mbXwXxPNJN_8devsweep15cleanup_historyNtB5_14CleanupHistoryNtNtCskzPJi2J8k3N_4core7default7Default7default
FN:489,_RNvNtNtCs3mbXwXxPNJN_8devsweep15cleanup_history5testss_22test_history_save_load
FN:474,_RNvNtNtCs3mbXwXxPNJN_8devsweep15cleanup_history5testss_28test_cleanup_record_creation
FN:186,_RNCNvMs0_NtCs3mbXwXxPNJN_8devsweep15cleanup_historyNtB7_14CleanupHistory10get_record0B9_
FN:151,_RNCNvMs0_NtCs3mbXwXxPNJN_8devsweep15cleanup_historyNtB7_14CleanupHistory17history_file_path0B9_
FN:159,_RNCNvMs0_NtCs3mbXwXxPNJN_8devsweep15cleanup_historyNtB7_14CleanupHistory18get_quarantine_dir0B9_
FN:350,_RNCNvMs0_NtCs3mbXwXxPNJN_8devsweep15cleanup_historyNtB7_14CleanupHistory19get_quarantine_size0B9_
FN:352,_RNCNvMs0_NtCs3mbXwXxPNJN_8devsweep15cleanup_historyNtB7_14CleanupHistory19get_quarantine_sizes0_0B9_
FN:353,_RNCNvMs0_NtCs3mbXwXxPNJN_8devsweep15cleanup_historyNtB7_14CleanupHistory19get_quarantine_sizes1_0B9_
FN:351,_RNCNvMs0_NtCs3mbXwXxPNJN_8devsweep15cleanup_historyNtB7_14CleanupHistory19get_quarantine_sizes_0B9_
FN:137,_RNCNvMs0_NtCs3mbXwXxPNJN_8devsweep15cleanup_historyNtB7_14CleanupHistory4save0B9_
FN:144,_RNCNvMs0_NtCs3mbXwXxPNJN_8devsweep15cleanup_historyNtB7_14CleanupHistory4saves0_0B9_
FN:141,_RNCNvMs0_NtCs3mbXwXxPNJN_8devsweep15cleanup_historyNtB7_14CleanupHistory4saves_0B9_
FN:27,_RNvMNtCs3mbXwXxPNJN_8devsweep15cleanup_historyNtB2_13CleanupRecord3new
FN:39,_RNvMNtCs3mbXwXxPNJN_8devsweep15cleanup_historyNtB2_13CleanupRecord8add_item
FN:164,_RNvMs0_NtCs3mbXwXxPNJN_8devsweep15cleanup_historyNtB5_14CleanupHistory10add_record
FN:185,_RNvMs0_NtCs3mbXwXxPNJN_8devsweep15cleanup_historyNtB5_14CleanupHistory10get_record
FN:150,_RNvMs0_NtCs3mbXwXxPNJN_8devsweep15cleanup_historyNtB5_14CleanupHistory17history_file_path
FN:158,_RNvMs0_NtCs3mbXwXxPNJN_8devsweep15cleanup_historyNtB5_14CleanupHistory18get_quarantine_dir
FN:343,_RNvMs0_NtCs3mbXwXxPNJN_8devsweep15cleanup_historyNtB5_14CleanupHistory19get_quarantine_size
FN:328,_RNvMs0_NtCs3mbXwXxPNJN_8devsweep15cleanup_historyNtB5_14CleanupHistory29cleanup_quarantine_for_record
FN:358,_RNvMs0_NtCs3mbXwXxPNJN_8devsweep15cleanup_historyNtB5_14CleanupHistory32cleanup_old_quarantine_if_needed
FN:103,_RNvMs0_NtCs3mbXwXxPNJN_8devsweep15cleanup_historyNtB5_14CleanupHistory3new
FN:114,_RNvMs0_NtCs3mbXwXxPNJN_8devsweep15cleanup_historyNtB5_14CleanupHistory4load
FN:131,_RNvMs0_NtCs3mbXwXxPNJN_8devsweep15cleanup_historyNtB5_14CleanupHistory4save
FN:67,_RNvMs_NtCs3mbXwXxPNJN_8devsweep15cleanup_historyNtB4_17CleanupItemRecord7success
FNDA:8,_RNvMNtCshVE6m5yoyjE_8devsweep15cleanup_historyNtB2_13CleanupRecord11is_undoable
FNDA:13,_RNvMNtCshVE6m5yoyjE_8devsweep15cleanup_historyNtB2_13CleanupRecord3new
FNDA:0,_RNvMNtCshVE6m5yoyjE_8devsweep15cleanup_historyNtB2_13CleanupRecord8add_item
FNDA:9,_RNvMs0_NtCshVE6m5yoyjE_8devsweep15cleanup_historyNtB5_14CleanupHistory10add_record
FNDA:0,_RNvMs0_NtCshVE6m5yoyjE_8devsweep15cleanup_historyNtB5_14CleanupHistory10get_record
FNDA:3,_RNvMs0_NtCshVE6m5yoyjE_8devsweep15cleanup_historyNtB5_14CleanupHistory11get_records
FNDA:3,_RNvMs0_NtCshVE6m5yoyjE_8devsweep15cleanup_historyNtB5_14CleanupHistory12restore_item
FNDA:11,_RNvMs0_NtCshVE6m5yoyjE_8devsweep15cleanup_historyNtB5_14CleanupHistory15quarantine_item
FNDA:29,_RNvMs0_NtCshVE6m5yoyjE_8devsweep15cleanup_historyNtB5_14CleanupHistory17history_file_path
FNDA:45,_RNvMs0_NtCshVE6m5yoyjE_8devsweep15cleanup_historyNtB5_14CleanupHistory18get_quarantine_dir
FNDA:18,_RNvMs0_NtCshVE6m5yoyjE_8devsweep15cleanup_historyNtB5_14CleanupHistory19get_quarantine_size
FNDA:0,_RNvMs0_NtCshVE6m5yoyjE_8devsweep15cleanup_historyNtB5_14CleanupHistory22delete_quarantine_item
FNDA:0,_RNvMs0_NtCshVE6m5yoyjE_8devsweep15cleanup_historyNtB5_14CleanupHistory29cleanup_quarantine_for_record
FNDA:9,_RNvMs0_NtCshVE6m5yoyjE_8devsweep15cleanup_historyNtB5_14CleanupHistory32cleanup_old_quarantine_if_needed
FNDA:45,_RNvMs0_NtCshVE6m5yoyjE_8devsweep15cleanup_historyNtB5_14CleanupHistory3new
FNDA:27,_RNvMs0_NtCshVE6m5yoyjE_8devsweep15cleanup_historyNtB5_14CleanupHistory4load
FNDA:2,_RNvMs0_NtCshVE6m5yoyjE_8devsweep15cleanup_historyNtB5_14CleanupHistory4save
FNDA:0,_RNvMs0_NtCshVE6m5yoyjE_8devsweep15cleanup_historyNtB5_14CleanupHistory4undo
FNDA:9,_RNvMs0_NtCshVE6m5yoyjE_8devsweep15cleanup_historyNtB5_14CleanupHistory5stats
FNDA:0,_RNvMs0_NtCshVE6m5yoyjE_8devsweep15cleanup_historyNtB5_14CleanupHistory9clear_all
FNDA:3,_RNvMs_NtCshVE6m5yoyjE_8devsweep15cleanup_historyNtB4_17CleanupItemRecord11can_restore
FNDA:0,_RNvMs_NtCshVE6m5yoyjE_8devsweep15cleanup_historyNtB4_17CleanupItemRecord5error
FNDA:2,_RNvMs_NtCshVE6m5yoyjE_8devsweep15cleanup_historyNtB4_17CleanupItemRecord7success
FNDA:0,_RNvXs1_NtCshVE6m5yoyjE_8devsweep15cleanup_historyNtB5_14CleanupHistoryNtNtCskzPJi2J8k3N_4core7default7Default7default
FNDA:0,_RNCNvMs0_NtCshVE6m5yoyjE_8devsweep15cleanup_historyNtB7_14CleanupHistory10get_record0B9_
FNDA:0,_RNCNvMs0_NtCshVE6m5yoyjE_8devsweep15cleanup_historyNtB7_14CleanupHistory12restore_item0B9_
FNDA:0,_RNCNvMs0_NtCshVE6m5yoyjE_8devsweep15cleanup_historyNtB7_14CleanupHistory12restore_items0_0B9_
FNDA:0,_RNCNvMs0_NtCshVE6m5yoyjE_8devsweep15cleanup_historyNtB7_14CleanupHistory12restore_items_0B9_
FNDA:0,_RNCNvMs0_NtCshVE6m5yoyjE_8devsweep15cleanup_historyNtB7_14CleanupHistory15quarantine_item0B9_
FNDA:0,_RNCNvMs0_NtCshVE6m5yoyjE_8devsweep15cleanup_historyNtB7_14CleanupHistory15quarantine_items0_0B9_
FNDA:0,_RNCNvMs0_NtCshVE6m5yoyjE_8devsweep15cleanup_historyNtB7_14CleanupHistory15quarantine_items1_0B9_
FNDA:10,_RNCNvMs0_NtCshVE6m5yoyjE_8devsweep15cleanup_historyNtB7_14CleanupHistory15quarantine_items_0B9_
FNDA:0,_RNCNvMs0_NtCshVE6m5yoyjE_8devsweep15cleanup_historyNtB7_14CleanupHistory17history_file_path0B9_
FNDA:0,_RNCNvMs0_NtCshVE6m5yoyjE_8devsweep15cleanup_historyNtB7_14CleanupHistory18get_quarantine_dir0B9_
FNDA:469,_RNCNvMs0_NtCshVE6m5yoyjE_8devsweep15cleanup_historyNtB7_14CleanupHistory19get_quarantine_size0B9_
FNDA:469,_RNCNvMs0_NtCshVE6m5yoyjE_8devsweep15cleanup_historyNtB7_14CleanupHistory19get_quarantine_sizes0_0B9_
FNDA:412,_RNCNvMs0_NtCshVE6m5yoyjE_8devsweep15cleanup_historyNtB7_14CleanupHistory19get_quarantine_sizes1_0B9_
FNDA:469,_RNCNvMs0_NtCshVE6m5yoyjE_8devsweep15cleanup_historyNtB7_14CleanupHistory19get_quarantine_sizes_0B9_
FNDA:0,_RNCNvMs0_NtCshVE6m5yoyjE_8devsweep15cleanup_historyNtB7_14CleanupHistory22delete_quarantine_item0B9_
FNDA:0,_RNCNvMs0_NtCshVE6m5yoyjE_8devsweep15cleanup_historyNtB7_14CleanupHistory22delete_quarantine_items0_0B9_
FNDA:0,_RNCNvMs0_NtCshVE6m5yoyjE_8devsweep15cleanup_historyNtB7_14CleanupHistory22delete_quarantine_items_0B9_
FNDA:0,_RNCNvMs0_NtCshVE6m5yoyjE_8devsweep15cleanup_historyNtB7_14CleanupHistory4save0B9_
FNDA:0,_RNCNvMs0_NtCshVE6m5yoyjE_8devsweep15cleanup_historyNtB7_14CleanupHistory4saves0_0B9_
FNDA:0,_RNCNvMs0_NtCshVE6m5yoyjE_8devsweep15cleanup_historyNtB7_14CleanupHistory4saves_0B9_
FNDA:0,_RNCNvMs0_NtCshVE6m5yoyjE_8devsweep15cleanup_historyNtB7_14CleanupHistory4undo0B9_
FNDA:0,_RNCNvMs0_NtCshVE6m5yoyjE_8devsweep15cleanup_historyNtB7_14CleanupHistory4undos_0B9_
FNDA:8,_RNCNvMs0_NtCshVE6m5yoyjE_8devsweep15cleanup_historyNtB7_14CleanupHistory5stats0B9_
FNDA:8,_RNCNvMs0_NtCshVE6m5yoyjE_8devsweep15cleanup_historyNtB7_14CleanupHistory5statss_0B9_
FNDA:0,_RNCNvMs0_NtCshVE6m5yoyjE_8devsweep15cleanup_historyNtB7_14CleanupHistory9clear_all0B9_
FNDA:0,_RNCNvMs0_NtCshVE6m5yoyjE_8devsweep15cleanup_historyNtB7_14CleanupHistory9clear_alls_0B9_
FNDA:0,_RNCNvMs0_NtCs3mbXwXxPNJN_8devsweep15cleanup_historyNtB7_14CleanupHistory12restore_item0B9_
FNDA:0,_RNCNvMs0_NtCs3mbXwXxPNJN_8devsweep15cleanup_historyNtB7_14CleanupHistory12restore_items0_0B9_
FNDA:0,_RNCNvMs0_NtCs3mbXwXxPNJN_8devsweep15cleanup_historyNtB7_14CleanupHistory12restore_items_0B9_
FNDA:0,_RNCNvMs0_NtCs3mbXwXxPNJN_8devsweep15cleanup_historyNtB7_14CleanupHistory15quarantine_item0B9_
FNDA:0,_RNCNvMs0_NtCs3mbXwXxPNJN_8devsweep15cleanup_historyNtB7_14CleanupHistory15quarantine_items0_0B9_
FNDA:0,_RNCNvMs0_NtCs3mbXwXxPNJN_8devsweep15cleanup_historyNtB7_14CleanupHistory15quarantine_items1_0B9_
FNDA:0,_RNCNvMs0_NtCs3mbXwXxPNJN_8devsweep15cleanup_historyNtB7_14CleanupHistory15quarantine_items_0B9_
FNDA:0,_RNCNvMs0_NtCs3mbXwXxPNJN_8devsweep15cleanup_historyNtB7_14CleanupHistory22delete_quarantine_item0B9_
FNDA:0,_RNCNvMs0_NtCs3mbXwXxPNJN_8devsweep15cleanup_historyNtB7_14CleanupHistory22delete_quarantine_items0_0B9_
FNDA:0,_RNCNvMs0_NtCs3mbXwXxPNJN_8devsweep15cleanup_historyNtB7_14CleanupHistory22delete_quarantine_items_0B9_
FNDA:0,_RNCNvMs0_NtCs3mbXwXxPNJN_8devsweep15cleanup_historyNtB7_14CleanupHistory4undo0B9_
FNDA:0,_RNCNvMs0_NtCs3mbXwXxPNJN_8devsweep15cleanup_historyNtB7_14CleanupHistory4undos_0B9_
FNDA:0,_RNCNvMs0_NtCs3mbXwXxPNJN_8devsweep15cleanup_historyNtB7_14CleanupHistory5stats0B9_
FNDA:0,_RNCNvMs0_NtCs3mbXwXxPNJN_8devsweep15cleanup_historyNtB7_14CleanupHistory5statss_0B9_
FNDA:0,_RNCNvMs0_NtCs3mbXwXxPNJN_8devsweep15cleanup_historyNtB7_14CleanupHistory9clear_all0B9_
FNDA:0,_RNCNvMs0_NtCs3mbXwXxPNJN_8devsweep15cleanup_historyNtB7_14CleanupHistory9clear_alls_0B9_
FNDA:0,_RNvMNtCs3mbXwXxPNJN_8devsweep15cleanup_historyNtB2_13CleanupRecord11is_undoable
FNDA:0,_RNvMs0_NtCs3mbXwXxPNJN_8devsweep15cleanup_historyNtB5_14CleanupHistory11get_records
FNDA:0,_RNvMs0_NtCs3mbXwXxPNJN_8devsweep15cleanup_historyNtB5_14CleanupHistory12restore_item
FNDA:0,_RNvMs0_NtCs3mbXwXxPNJN_8devsweep15cleanup_historyNtB5_14CleanupHistory15quarantine_item
FNDA:0,_RNvMs0_NtCs3mbXwXxPNJN_8devsweep15cleanup_historyNtB5_14CleanupHistory22delete_quarantine_item
FNDA:0,_RNvMs0_NtCs3mbXwXxPNJN_8devsweep15cleanup_historyNtB5_14CleanupHistory4undo
FNDA:0,_RNvMs0_NtCs3mbXwXxPNJN_8devsweep15cleanup_historyNtB5_14CleanupHistory5stats
FNDA:0,_RNvMs0_NtCs3mbXwXxPNJN_8devsweep15cleanup_historyNtB5_14CleanupHistory9clear_all
FNDA:0,_RNvMs_NtCs3mbXwXxPNJN_8devsweep15cleanup_historyNtB4_17CleanupItemRecord11can_restore
FNDA:0,_RNvMs_NtCs3mbXwXxPNJN_8devsweep15cleanup_historyNtB4_17CleanupItemRecord5error
FNDA:0,_RNvXs1_NtCs3mbXwXxPNJN_8devsweep15cleanup_historyNtB5_14CleanupHistoryNtNtCskzPJi2J8k3N_4core7default7Default7default
FNDA:1,_RNvNtNtCs3mbXwXxPNJN_8devsweep15cleanup_history5testss_22test_history_save_load
FNDA:1,_RNvNtNtCs3mbXwXxPNJN_8devsweep15cleanup_history5testss_28test_cleanup_record_creation
FNDA:1,_RNCNvMs0_NtCs3mbXwXxPNJN_8devsweep15cleanup_historyNtB7_14CleanupHistory10get_record0B9_
FNDA:0,_RNCNvMs0_NtCs3mbXwXxPNJN_8devsweep15cleanup_historyNtB7_14CleanupHistory17history_file_path0B9_
FNDA:0,_RNCNvMs0_NtCs3mbXwXxPNJN_8devsweep15cleanup_historyNtB7_14CleanupHistory18get_quarantine_dir0B9_
FNDA:25,_RNCNvMs0_NtCs3mbXwXxPNJN_8devsweep15cleanup_historyNtB7_14CleanupHistory19get_quarantine_size0B9_
FNDA:25,_RNCNvMs0_NtCs3mbXwXxPNJN_8devsweep15cleanup_historyNtB7_14CleanupHistory19get_quarantine_sizes0_0B9_
FNDA:22,_RNCNvMs0_NtCs3mbXwXxPNJN_8devsweep15cleanup_historyNtB7_14CleanupHistory19get_quarantine_sizes1_0B9_
FNDA:25,_RNCNvMs0_NtCs3mbXwXxPNJN_8devsweep15cleanup_historyNtB7_14CleanupHistory19get_quarantine_sizes_0B9_
FNDA:0,_RNCNvMs0_NtCs3mbXwXxPNJN_8devsweep15cleanup_historyNtB7_14CleanupHistory4save0B9_
FNDA:0,_RNCNvMs0_NtCs3mbXwXxPNJN_8devsweep15cleanup_historyNtB7_14CleanupHistory4saves0_0B9_
FNDA:0,_RNCNvMs0_NtCs3mbXwXxPNJN_8devsweep15cleanup_historyNtB7_14CleanupHistory4saves_0B9_
FNDA:2,_RNvMNtCs3mbXwXxPNJN_8devsweep15cleanup_historyNtB2_13CleanupRecord3new
FNDA:1,_RNvMNtCs3mbXwXxPNJN_8devsweep15cleanup_historyNtB2_13CleanupRecord8add_item
FNDA:1,_RNvMs0_NtCs3mbXwXxPNJN_8devsweep15cleanup_historyNtB5_14CleanupHistory10add_record
FNDA:1,_RNvMs0_NtCs3mbXwXxPNJN_8devsweep15cleanup_historyNtB5_14CleanupHistory10get_record
FNDA:2,_RNvMs0_NtCs3mbXwXxPNJN_8devsweep15cleanup_historyNtB5_14CleanupHistory17history_file_path
FNDA:2,_RNvMs0_NtCs3mbXwXxPNJN_8devsweep15cleanup_historyNtB5_14CleanupHistory18get_quarantine_dir
FNDA:1,_RNvMs0_NtCs3mbXwXxPNJN_8devsweep15cleanup_historyNtB5_14CleanupHistory19get_quarantine_size
FNDA:0,_RNvMs0_NtCs3mbXwXxPNJN_8devsweep15cleanup_historyNtB5_14CleanupHistory29cleanup_quarantine_for_record
FNDA:1,_RNvMs0_NtCs3mbXwXxPNJN_8devsweep15cleanup_historyNtB5_14CleanupHistory32cleanup_old_quarantine_if_needed
FNDA:2,_RNvMs0_NtCs3mbXwXxPNJN_8devsweep15cleanup_historyNtB5_14CleanupHistory3new
FNDA:1,_RNvMs0_NtCs3mbXwXxPNJN_8devsweep15cleanup_historyNtB5_14CleanupHistory4load
FNDA:1,_RNvMs0_NtCs3mbXwXxPNJN_8devsweep15cleanup_historyNtB5_14CleanupHistory4save
FNDA:1,_RNvMs_NtCs3mbXwXxPNJN_8devsweep15cleanup_historyNtB4_17CleanupItemRecord7success
FNF:52
FNH:28
DA:27,15
DA:28,15
DA:29,15
DA:30,15
DA:31,15
DA:32,15
DA:33,15
DA:34,15
DA:35,15
DA:36,15
DA:37,15
DA:39,1
DA:40,1
DA:41,1
DA:42,1
DA:43,1
DA:44,0
DA:45,0
DA:46,1
DA:47,1
DA:49,8
DA:50,8
DA:51,8
DA:67,3
DA:68,3
DA:69,3
DA:70,3
DA:71,3
DA:72,3
DA:73,3
DA:74,3
DA:75,3
DA:76,3
DA:77,3
DA:79,0
DA:80,0
DA:81,0
DA:82,0
DA:83,0
DA:84,0
DA:85,0
DA:86,0
DA:87,0
DA:88,0
DA:89,0
DA:91,3
DA:92,3
DA:93,3
DA:103,47
DA:104,47
DA:106,47
DA:107,47
DA:108,47
DA:109,47
DA:110,47
DA:111,47
DA:114,28
DA:115,28
DA:117,28
DA:118,28
DA:119,28
DA:120,28
DA:121,28
DA:122,0
DA:125,28
DA:127,28
DA:128,28
DA:131,3
DA:132,3
DA:135,3
DA:136,3
DA:137,3
DA:138,0
DA:140,3
DA:141,3
DA:143,3
DA:144,3
DA:146,3
DA:147,3
DA:150,31
DA:151,31
DA:152,31
DA:153,31
DA:154,31
DA:155,31
DA:158,47
DA:159,47
DA:160,47
DA:161,47
DA:164,10
DA:165,10
DA:168,10
DA:169,0
DA:170,0
DA:171,0
DA:172,0
DA:176,10
DA:177,10
DA:180,3
DA:181,3
DA:182,3
DA:185,1
DA:186,1
DA:187,1
DA:190,11
DA:191,11
DA:192,11
DA:193,11
DA:194,11
DA:196,11
DA:197,1
DA:198,10
DA:201,10
DA:202,10
DA:203,10
DA:204,10
DA:206,10
DA:207,10
DA:208,10
DA:209,10
DA:211,10
DA:212,10
DA:213,10
DA:216,10
DA:217,10
DA:220,10
DA:221,10
DA:223,10
DA:224,11
DA:227,3
DA:228,3
DA:229,0
DA:230,3
DA:232,3
DA:233,3
DA:234,3
DA:235,3
DA:237,3
DA:238,1
DA:239,2
DA:242,2
DA:243,0
DA:244,0
DA:245,0
DA:246,0
DA:247,2
DA:250,2
DA:251,2
DA:252,2
DA:253,0
DA:256,2
DA:257,2
DA:259,2
DA:260,3
DA:263,0
DA:264,0
DA:265,0
DA:266,0
DA:267,0
DA:269,0
DA:270,0
DA:271,0
DA:273,0
DA:274,0
DA:275,0
DA:277,0
DA:278,0
DA:279,0
DA:280,0
DA:281,0
DA:282,0
DA:283,0
DA:284,0
DA:285,0
DA:286,0
DA:287,0
DA:288,0
DA:290,0
DA:294,0
DA:295,0
DA:296,0
DA:298,0
DA:300,0
DA:301,0
DA:302,0
DA:303,0
DA:304,0
DA:305,0
DA:308,0
DA:310,0
DA:311,0
DA:312,0
DA:313,0
DA:316,0
DA:317,0
DA:320,0
DA:322,0
DA:324,0
DA:325,0
DA:328,0
DA:329,0
DA:330,0
DA:331,0
DA:332,0
DA:333,0
DA:335,0
DA:337,0
DA:338,0
DA:340,0
DA:343,19
DA:344,19
DA:345,0
DA:346,19
DA:348,19
DA:349,19
DA:350,494
DA:351,494
DA:352,494
DA:353,434
DA:354,19
DA:355,19
DA:358,10
DA:359,10
DA:361,10
DA:363,0
DA:364,0
DA:365,0
DA:366,0
DA:367,0
DA:370,0
DA:371,10
DA:373,10
DA:374,10
DA:377,0
DA:378,0
DA:379,0
DA:380,0
DA:381,0
DA:383,0
DA:384,0
DA:385,0
DA:386,0
DA:387,0
DA:390,0
DA:391,0
DA:392,0
DA:394,0
DA:397,0
DA:398,0
DA:401,0
DA:402,0
DA:404,0
DA:405,0
DA:407,0
DA:410,0
DA:413,0
DA:414,0
DA:415,0
DA:417,0
DA:419,0
DA:421,0
DA:424,0
DA:426,0
DA:429,9
DA:430,9
DA:431,9
DA:432,9
DA:434,9
DA:435,9
DA:436,9
DA:437,9
DA:438,9
DA:439,9
DA:440,9
DA:444,0
DA:445,0
DA:446,0
DA:474,1
DA:475,1
DA:476,1
DA:477,1
DA:478,1
DA:480,1
DA:481,1
DA:482,1
DA:484,1
DA:485,1
DA:486,1
DA:489,1
DA:490,1
DA:491,1
DA:492,1
DA:494,1
DA:496,1
DA:497,1
DA:498,1
DA:499,1
BRF:0
BRH:0
LF:323
LH:185
end_of_record
SF:/Users/canggih/Documents/Kedata/cleanstorage/dev-cleaner/src/main.rs
FN:54,_RNCNCNCNCNvCs82bOIMPF3dK_8devsweep30setup_single_instance_listener0000B9_
FN:51,_RNCNCNCNvCs82bOIMPF3dK_8devsweep30setup_single_instance_listener000B7_
FN:114,_RNCNCNvCs82bOIMPF3dK_8devsweep16open_main_window00B5_
FN:43,_RNCNCNvCs82bOIMPF3dK_8devsweep30setup_single_instance_listener00B5_
FN:84,_RNCNCNvCs82bOIMPF3dK_8devsweep4main00B5_
FN:12,_RNCNvCs82bOIMPF3dK_8devsweep15get_socket_path0B3_
FN:114,_RNCNvCs82bOIMPF3dK_8devsweep16open_main_window0B3_
FN:63,_RNCNvCs82bOIMPF3dK_8devsweep30setup_single_instance_listener0B3_
FN:77,_RNCNvCs82bOIMPF3dK_8devsweep4main0B3_
FN:91,_RNCNvCs82bOIMPF3dK_8devsweep4mains_0B3_
FN:9,_RNvCs82bOIMPF3dK_8devsweep15get_socket_path
FN:102,_RNvCs82bOIMPF3dK_8devsweep16open_main_window
FN:32,_RNvCs82bOIMPF3dK_8devsweep30setup_single_instance_listener
FN:17,_RNvCs82bOIMPF3dK_8devsweep30try_activate_existing_instance
FN:68,_RNvCs82bOIMPF3dK_8devsweep4main
FN:9,_RNvCsbLZLPspOVoi_8devsweep15get_socket_path
FN:102,_RNvCsbLZLPspOVoi_8devsweep16open_main_window
FN:32,_RNvCsbLZLPspOVoi_8devsweep30setup_single_instance_listener
FN:17,_RNvCsbLZLPspOVoi_8devsweep30try_activate_existing_instance
FN:68,_RNvCsbLZLPspOVoi_8devsweep4main
FN:54,_RNCNCNCNCNvCsbLZLPspOVoi_8devsweep30setup_single_instance_listener0000B9_
FN:51,_RNCNCNCNvCsbLZLPspOVoi_8devsweep30setup_single_instance_listener000B7_
FN:114,_RNCNCNvCsbLZLPspOVoi_8devsweep16open_main_window00B5_
FN:43,_RNCNCNvCsbLZLPspOVoi_8devsweep30setup_single_instance_listener00B5_
FN:84,_RNCNCNvCsbLZLPspOVoi_8devsweep4main00B5_
FN:12,_RNCNvCsbLZLPspOVoi_8devsweep15get_socket_path0B3_
FN:114,_RNCNvCsbLZLPspOVoi_8devsweep16open_main_window0B3_
FN:63,_RNCNvCsbLZLPspOVoi_8devsweep30setup_single_instance_listener0B3_
FN:77,_RNCNvCsbLZLPspOVoi_8devsweep4main0B3_
FN:91,_RNCNvCsbLZLPspOVoi_8devsweep4mains_0B3_
FNDA:0,_RNCNCNCNCNvCs82bOIMPF3dK_8devsweep30setup_single_instance_listener0000B9_
FNDA:0,_RNCNCNCNvCs82bOIMPF3dK_8devsweep30setup_single_instance_listener000B7_
FNDA:0,_RNCNCNvCs82bOIMPF3dK_8devsweep16open_main_window00B5_
FNDA:0,_RNCNCNvCs82bOIMPF3dK_8devsweep30setup_single_instance_listener00B5_
FNDA:0,_RNCNCNvCs82bOIMPF3dK_8devsweep4main00B5_
FNDA:0,_RNCNvCs82bOIMPF3dK_8devsweep15get_socket_path0B3_
FNDA:0,_RNCNvCs82bOIMPF3dK_8devsweep16open_main_window0B3_
FNDA:0,_RNCNvCs82bOIMPF3dK_8devsweep30setup_single_instance_listener0B3_
FNDA:0,_RNCNvCs82bOIMPF3dK_8devsweep4main0B3_
FNDA:0,_RNCNvCs82bOIMPF3dK_8devsweep4mains_0B3_
FNDA:0,_RNvCs82bOIMPF3dK_8devsweep15get_socket_path
FNDA:0,_RNvCs82bOIMPF3dK_8devsweep16open_main_window
FNDA:0,_RNvCs82bOIMPF3dK_8devsweep30setup_single_instance_listener
FNDA:0,_RNvCs82bOIMPF3dK_8devsweep30try_activate_existing_instance
FNDA:0,_RNvCs82bOIMPF3dK_8devsweep4main
FNDA:0,_RNvCsbLZLPspOVoi_8devsweep15get_socket_path
FNDA:0,_RNvCsbLZLPspOVoi_8devsweep16open_main_window
FNDA:0,_RNvCsbLZLPspOVoi_8devsweep30setup_single_instance_listener
FNDA:0,_RNvCsbLZLPspOVoi_8devsweep30try_activate_existing_instance
FNDA:0,_RNvCsbLZLPspOVoi_8devsweep4main
FNDA:0,_RNCNCNCNCNvCsbLZLPspOVoi_8devsweep30setup_single_instance_listener0000B9_
FNDA:0,_RNCNCNCNvCsbLZLPspOVoi_8devsweep30setup_single_instance_listener000B7_
FNDA:0,_RNCNCNvCsbLZLPspOVoi_8devsweep16open_main_window00B5_
FNDA:0,_RNCNCNvCsbLZLPspOVoi_8devsweep30setup_single_instance_listener00B5_
FNDA:0,_RNCNCNvCsbLZLPspOVoi_8devsweep4main00B5_
FNDA:0,_RNCNvCsbLZLPspOVoi_8devsweep15get_socket_path0B3_
FNDA:0,_RNCNvCsbLZLPspOVoi_8devsweep16open_main_window0B3_
FNDA:0,_RNCNvCsbLZLPspOVoi_8devsweep30setup_single_instance_listener0B3_
FNDA:0,_RNCNvCsbLZLPspOVoi_8devsweep4main0B3_
FNDA:0,_RNCNvCsbLZLPspOVoi_8devsweep4mains_0B3_
FNF:15
FNH:0
DA:9,0
DA:10,0
DA:11,0
DA:12,0
DA:13,0
DA:14,0
DA:15,0
DA:17,0
DA:18,0
DA:20,0
DA:22,0
DA:23,0
DA:24,0
DA:25,0
DA:26,0
DA:27,0
DA:29,0
DA:30,0
DA:32,0
DA:33,0
DA:36,0
DA:39,0
DA:40,0
DA:43,0
DA:45,0
DA:47,0
DA:48,0
DA:49,0
DA:51,0
DA:52,0
DA:53,0
DA:54,0
DA:55,0
DA:56,0
DA:57,0
DA:58,0
DA:59,0
DA:60,0
DA:61,0
DA:63,0
DA:64,0
DA:65,0
DA:66,0
DA:68,0
DA:70,0
DA:71,0
DA:72,0
DA:74,0
DA:77,0
DA:78,0
DA:79,0
DA:80,0
DA:82,0
DA:83,0
DA:84,0
DA:85,0
DA:86,0
DA:87,0
DA:89,0
DA:91,0
DA:93,0
DA:95,0
DA:96,0
DA:99,0
DA:100,0
DA:102,0
DA:103,0
DA:104,0
DA:105,0
DA:106,0
DA:107,0
DA:108,0
DA:109,0
DA:110,0
DA:111,0
DA:112,0
DA:113,0
DA:114,0
DA:116,0
DA:119,0
DA:120,0
BRF:0
BRH:0
LF:89
LH:0
end_of_record
SF:/Users/canggih/Documents/Kedata/cleanstorage/dev-cleaner/src/scan_cache.rs
FN:299,_RINvMs3_NtCshVE6m5yoyjE_8devsweep10scan_cacheNtB6_11PathTracker5trackRNtNtCsiThrkg7suPy_3std4path7PathBufEB8_
FN:161,_RNCNvMs0_NtCshVE6m5yoyjE_8devsweep10scan_cacheNtB7_11CacheConfig16config_file_path0B9_
FN:149,_RNCNvMs0_NtCshVE6m5yoyjE_8devsweep10scan_cacheNtB7_11CacheConfig4save0B9_
FN:155,_RNCNvMs0_NtCshVE6m5yoyjE_8devsweep10scan_cacheNtB7_11CacheConfig4saves0_0B9_
FN:153,_RNCNvMs0_NtCshVE6m5yoyjE_8devsweep10scan_cacheNtB7_11CacheConfig4saves_0B9_
FN:220,_RNCNvMs1_NtCshVE6m5yoyjE_8devsweep10scan_cacheNtB7_9ScanCache15cache_file_path0B9_
FN:207,_RNCNvMs1_NtCshVE6m5yoyjE_8devsweep10scan_cacheNtB7_9ScanCache4save0B9_
FN:213,_RNCNvMs1_NtCshVE6m5yoyjE_8devsweep10scan_cacheNtB7_9ScanCache4saves0_0B9_
FN:211,_RNCNvMs1_NtCshVE6m5yoyjE_8devsweep10scan_cacheNtB7_9ScanCache4saves_0B9_
FN:26,_RNvMNtCshVE6m5yoyjE_8devsweep10scan_cacheNtB2_12PathMetadata11has_changed
FN:17,_RNvMNtCshVE6m5yoyjE_8devsweep10scan_cacheNtB2_12PathMetadata9from_path
FN:109,_RNvMs0_NtCshVE6m5yoyjE_8devsweep10scan_cacheNtB5_11CacheConfig14default_config
FN:160,_RNvMs0_NtCshVE6m5yoyjE_8devsweep10scan_cacheNtB5_11CacheConfig16config_file_path
FN:134,_RNvMs0_NtCshVE6m5yoyjE_8devsweep10scan_cacheNtB5_11CacheConfig4load
FN:144,_RNvMs0_NtCshVE6m5yoyjE_8devsweep10scan_cacheNtB5_11CacheConfig4save
FN:130,_RNvMs0_NtCshVE6m5yoyjE_8devsweep10scan_cacheNtB5_11CacheConfig7get_ttl
FN:269,_RNvMs1_NtCshVE6m5yoyjE_8devsweep10scan_cacheNtB5_9ScanCache10get_config
FN:274,_RNvMs1_NtCshVE6m5yoyjE_8devsweep10scan_cacheNtB5_9ScanCache10set_config
FN:261,_RNvMs1_NtCshVE6m5yoyjE_8devsweep10scan_cacheNtB5_9ScanCache12needs_rescan
FN:219,_RNvMs1_NtCshVE6m5yoyjE_8devsweep10scan_cacheNtB5_9ScanCache15cache_file_path
FN:233,_RNvMs1_NtCshVE6m5yoyjE_8devsweep10scan_cacheNtB5_9ScanCache15update_category
FN:251,_RNvMs1_NtCshVE6m5yoyjE_8devsweep10scan_cacheNtB5_9ScanCache18get_valid_category
FN:178,_RNvMs1_NtCshVE6m5yoyjE_8devsweep10scan_cacheNtB5_9ScanCache3new
FN:187,_RNvMs1_NtCshVE6m5yoyjE_8devsweep10scan_cacheNtB5_9ScanCache4load
FN:201,_RNvMs1_NtCshVE6m5yoyjE_8devsweep10scan_cacheNtB5_9ScanCache4save
FN:227,_RNvMs1_NtCshVE6m5yoyjE_8devsweep10scan_cacheNtB5_9ScanCache5clear
FN:307,_RNvMs3_NtCshVE6m5yoyjE_8devsweep10scan_cacheNtB5_11PathTracker10into_paths
FN:292,_RNvMs3_NtCshVE6m5yoyjE_8devsweep10scan_cacheNtB5_11PathTracker3new
FN:91,_RNvMs_NtCshVE6m5yoyjE_8devsweep10scan_cacheNtB4_20CachedCategoryResult15to_check_result
FN:50,_RNvMs_NtCshVE6m5yoyjE_8devsweep10scan_cacheNtB4_20CachedCategoryResult3new
FN:71,_RNvMs_NtCshVE6m5yoyjE_8devsweep10scan_cacheNtB4_20CachedCategoryResult8is_valid
FN:65,_RNvMs_NtCshVE6m5yoyjE_8devsweep10scan_cacheNtB4_20CachedCategoryResult8with_ttl
FN:281,_RNvXs2_NtCshVE6m5yoyjE_8devsweep10scan_cacheNtB5_9ScanCacheNtNtCskzPJi2J8k3N_4core7default7Default7default
FN:313,_RNvXs4_NtCshVE6m5yoyjE_8devsweep10scan_cacheNtB5_11PathTrackerNtNtCskzPJi2J8k3N_4core7default7Default7default
FN:149,_RNCNvMs0_NtCs3mbXwXxPNJN_8devsweep10scan_cacheNtB7_11CacheConfig4save0B9_
FN:155,_RNCNvMs0_NtCs3mbXwXxPNJN_8devsweep10scan_cacheNtB7_11CacheConfig4saves0_0B9_
FN:153,_RNCNvMs0_NtCs3mbXwXxPNJN_8devsweep10scan_cacheNtB7_11CacheConfig4saves_0B9_
FN:144,_RNvMs0_NtCs3mbXwXxPNJN_8devsweep10scan_cacheNtB5_11CacheConfig4save
FN:269,_RNvMs1_NtCs3mbXwXxPNJN_8devsweep10scan_cacheNtB5_9ScanCache10get_config
FN:274,_RNvMs1_NtCs3mbXwXxPNJN_8devsweep10scan_cacheNtB5_9ScanCache10set_config
FN:261,_RNvMs1_NtCs3mbXwXxPNJN_8devsweep10scan_cacheNtB5_9ScanCache12needs_rescan
FN:251,_RNvMs1_NtCs3mbXwXxPNJN_8devsweep10scan_cacheNtB5_9ScanCache18get_valid_category
FN:227,_RNvMs1_NtCs3mbXwXxPNJN_8devsweep10scan_cacheNtB5_9ScanCache5clear
FN:91,_RNvMs_NtCs3mbXwXxPNJN_8devsweep10scan_cacheNtB4_20CachedCategoryResult15to_check_result
FN:71,_RNvMs_NtCs3mbXwXxPNJN_8devsweep10scan_cacheNtB4_20CachedCategoryResult8is_valid
FN:313,_RNvXs4_NtCs3mbXwXxPNJN_8devsweep10scan_cacheNtB5_11PathTrackerNtNtCskzPJi2J8k3N_4core7default7Default7default
FN:26,_RNvMNtCs3mbXwXxPNJN_8devsweep10scan_cacheNtB2_12PathMetadata11has_changed
FN:17,_RNvMNtCs3mbXwXxPNJN_8devsweep10scan_cacheNtB2_12PathMetadata9from_path
FN:109,_RNvMs0_NtCs3mbXwXxPNJN_8devsweep10scan_cacheNtB5_11CacheConfig14default_config
FN:160,_RNvMs0_NtCs3mbXwXxPNJN_8devsweep10scan_cacheNtB5_11CacheConfig16config_file_path
FN:134,_RNvMs0_NtCs3mbXwXxPNJN_8devsweep10scan_cacheNtB5_11CacheConfig4load
FN:130,_RNvMs0_NtCs3mbXwXxPNJN_8devsweep10scan_cacheNtB5_11CacheConfig7get_ttl
FN:219,_RNvMs1_NtCs3mbXwXxPNJN_8devsweep10scan_cacheNtB5_9ScanCache15cache_file_path
FN:233,_RNvMs1_NtCs3mbXwXxPNJN_8devsweep10scan_cacheNtB5_9ScanCache15update_category
FN:178,_RNvMs1_NtCs3mbXwXxPNJN_8devsweep10scan_cacheNtB5_9ScanCache3new
FN:187,_RNvMs1_NtCs3mbXwXxPNJN_8devsweep10scan_cacheNtB5_9ScanCache4load
FN:201,_RNvMs1_NtCs3mbXwXxPNJN_8devsweep10scan_cacheNtB5_9ScanCache4save
FN:307,_RNvMs3_NtCs3mbXwXxPNJN_8devsweep10scan_cacheNtB5_11PathTracker10into_paths
FN:292,_RNvMs3_NtCs3mbXwXxPNJN_8devsweep10scan_cacheNtB5_11PathTracker3new
FN:50,_RNvMs_NtCs3mbXwXxPNJN_8devsweep10scan_cacheNtB4_20CachedCategoryResult3new
FN:65,_RNvMs_NtCs3mbXwXxPNJN_8devsweep10scan_cacheNtB4_20CachedCategoryResult8with_ttl
FN:281,_RNvXs2_NtCs3mbXwXxPNJN_8devsweep10scan_cacheNtB5_9ScanCacheNtNtCskzPJi2J8k3N_4core7default7Default7default
FN:344,_RNvNtNtCs3mbXwXxPNJN_8devsweep10scan_cache5testss_20test_cache_save_load
FN:325,_RNvNtNtCs3mbXwXxPNJN_8devsweep10scan_cache5testss_35test_path_metadata_change_detection
FN:299,_RINvMs3_NtCs3mbXwXxPNJN_8devsweep10scan_cacheNtB6_11PathTracker5trackNtNtCsiThrkg7suPy_3std4path7PathBufEB8_
FN:161,_RNCNvMs0_NtCs3mbXwXxPNJN_8devsweep10scan_cacheNtB7_11CacheConfig16config_file_path0B9_
FN:220,_RNCNvMs1_NtCs3mbXwXxPNJN_8devsweep10scan_cacheNtB7_9ScanCache15cache_file_path0B9_
FN:207,_RNCNvMs1_NtCs3mbXwXxPNJN_8devsweep10scan_cacheNtB7_9ScanCache4save0B9_
FN:213,_RNCNvMs1_NtCs3mbXwXxPNJN_8devsweep10scan_cacheNtB7_9ScanCache4saves0_0B9_
FN:211,_RNCNvMs1_NtCs3mbXwXxPNJN_8devsweep10scan_cacheNtB7_9ScanCache4saves_0B9_
FN:299,_RINvMs3_NtCshVE6m5yoyjE_8devsweep10scan_cacheNtB6_11PathTracker5trackRNtNtCsiThrkg7suPy_3std4path4PathECsipz4vbXQYrS_15test_scan_cache
FNDA:252,_RINvMs3_NtCshVE6m5yoyjE_8devsweep10scan_cacheNtB6_11PathTracker5trackRNtNtCsiThrkg7suPy_3std4path7PathBufEB8_
FNDA:0,_RNCNvMs0_NtCshVE6m5yoyjE_8devsweep10scan_cacheNtB7_11CacheConfig16config_file_path0B9_
FNDA:0,_RNCNvMs0_NtCshVE6m5yoyjE_8devsweep10scan_cacheNtB7_11CacheConfig4save0B9_
FNDA:0,_RNCNvMs0_NtCshVE6m5yoyjE_8devsweep10scan_cacheNtB7_11CacheConfig4saves0_0B9_
FNDA:0,_RNCNvMs0_NtCshVE6m5yoyjE_8devsweep10scan_cacheNtB7_11CacheConfig4saves_0B9_
FNDA:0,_RNCNvMs1_NtCshVE6m5yoyjE_8devsweep10scan_cacheNtB7_9ScanCache15cache_file_path0B9_
FNDA:0,_RNCNvMs1_NtCshVE6m5yoyjE_8devsweep10scan_cacheNtB7_9ScanCache4save0B9_
FNDA:0,_RNCNvMs1_NtCshVE6m5yoyjE_8devsweep10scan_cacheNtB7_9ScanCache4saves0_0B9_
FNDA:0,_RNCNvMs1_NtCshVE6m5yoyjE_8devsweep10scan_cacheNtB7_9ScanCache4saves_0B9_
FNDA:187,_RNvMNtCshVE6m5yoyjE_8devsweep10scan_cacheNtB2_12PathMetadata11has_changed
FNDA:440,_RNvMNtCshVE6m5yoyjE_8devsweep10scan_cacheNtB2_12PathMetadata9from_path
FNDA:34,_RNvMs0_NtCshVE6m5yoyjE_8devsweep10scan_cacheNtB5_11CacheConfig14default_config
FNDA:36,_RNvMs0_NtCshVE6m5yoyjE_8devsweep10scan_cacheNtB5_11CacheConfig16config_file_path
FNDA:27,_RNvMs0_NtCshVE6m5yoyjE_8devsweep10scan_cacheNtB5_11CacheConfig4load
FNDA:9,_RNvMs0_NtCshVE6m5yoyjE_8devsweep10scan_cacheNtB5_11CacheConfig4save
FNDA:258,_RNvMs0_NtCshVE6m5yoyjE_8devsweep10scan_cacheNtB5_11CacheConfig7get_ttl
FNDA:4,_RNvMs1_NtCshVE6m5yoyjE_8devsweep10scan_cacheNtB5_9ScanCache10get_config
FNDA:8,_RNvMs1_NtCshVE6m5yoyjE_8devsweep10scan_cacheNtB5_9ScanCache10set_config
FNDA:177,_RNvMs1_NtCshVE6m5yoyjE_8devsweep10scan_cacheNtB5_9ScanCache12needs_rescan
FNDA:38,_RNvMs1_NtCshVE6m5yoyjE_8devsweep10scan_cacheNtB5_9ScanCache15cache_file_path
FNDA:253,_RNvMs1_NtCshVE6m5yoyjE_8devsweep10scan_cacheNtB5_9ScanCache15update_category
FNDA:51,_RNvMs1_NtCshVE6m5yoyjE_8devsweep10scan_cacheNtB5_9ScanCache18get_valid_category
FNDA:22,_RNvMs1_NtCshVE6m5yoyjE_8devsweep10scan_cacheNtB5_9ScanCache3new
FNDA:26,_RNvMs1_NtCshVE6m5yoyjE_8devsweep10scan_cacheNtB5_9ScanCache4load
FNDA:12,_RNvMs1_NtCshVE6m5yoyjE_8devsweep10scan_cacheNtB5_9ScanCache4save
FNDA:2,_RNvMs1_NtCshVE6m5yoyjE_8devsweep10scan_cacheNtB5_9ScanCache5clear
FNDA:133,_RNvMs3_NtCshVE6m5yoyjE_8devsweep10scan_cacheNtB5_11PathTracker10into_paths
FNDA:133,_RNvMs3_NtCshVE6m5yoyjE_8devsweep10scan_cacheNtB5_11PathTracker3new
FNDA:50,_RNvMs_NtCshVE6m5yoyjE_8devsweep10scan_cacheNtB4_20CachedCategoryResult15to_check_result
FNDA:253,_RNvMs_NtCshVE6m5yoyjE_8devsweep10scan_cacheNtB4_20CachedCategoryResult3new
FNDA:219,_RNvMs_NtCshVE6m5yoyjE_8devsweep10scan_cacheNtB4_20CachedCategoryResult8is_valid
FNDA:112,_RNvMs_NtCshVE6m5yoyjE_8devsweep10scan_cacheNtB4_20CachedCategoryResult8with_ttl
FNDA:1,_RNvXs2_NtCshVE6m5yoyjE_8devsweep10scan_cacheNtB5_9ScanCacheNtNtCskzPJi2J8k3N_4core7default7Default7default
FNDA:0,_RNvXs4_NtCshVE6m5yoyjE_8devsweep10scan_cacheNtB5_11PathTrackerNtNtCskzPJi2J8k3N_4core7default7Default7default
FNDA:0,_RNCNvMs0_NtCs3mbXwXxPNJN_8devsweep10scan_cacheNtB7_11CacheConfig4save0B9_
FNDA:0,_RNCNvMs0_NtCs3mbXwXxPNJN_8devsweep10scan_cacheNtB7_11CacheConfig4saves0_0B9_
FNDA:0,_RNCNvMs0_NtCs3mbXwXxPNJN_8devsweep10scan_cacheNtB7_11CacheConfig4saves_0B9_
FNDA:0,_RNvMs0_NtCs3mbXwXxPNJN_8devsweep10scan_cacheNtB5_11CacheConfig4save
FNDA:0,_RNvMs1_NtCs3mbXwXxPNJN_8devsweep10scan_cacheNtB5_9ScanCache10get_config
FNDA:0,_RNvMs1_NtCs3mbXwXxPNJN_8devsweep10scan_cacheNtB5_9ScanCache10set_config
FNDA:0,_RNvMs1_NtCs3mbXwXxPNJN_8devsweep10scan_cacheNtB5_9ScanCache12needs_rescan
FNDA:0,_RNvMs1_NtCs3mbXwXxPNJN_8devsweep10scan_cacheNtB5_9ScanCache18get_valid_category
FNDA:0,_RNvMs1_NtCs3mbXwXxPNJN_8devsweep10scan_cacheNtB5_9ScanCache5clear
FNDA:0,_RNvMs_NtCs3mbXwXxPNJN_8devsweep10scan_cacheNtB4_20CachedCategoryResult15to_check_result
FNDA:0,_RNvMs_NtCs3mbXwXxPNJN_8devsweep10scan_cacheNtB4_20CachedCategoryResult8is_valid
FNDA:0,_RNvXs4_NtCs3mbXwXxPNJN_8devsweep10scan_cacheNtB5_11PathTrackerNtNtCskzPJi2J8k3N_4core7default7Default7default
FNDA:1,_RNvMNtCs3mbXwXxPNJN_8devsweep10scan_cacheNtB2_12PathMetadata11has_changed
FNDA:3,_RNvMNtCs3mbXwXxPNJN_8devsweep10scan_cacheNtB2_12PathMetadata9from_path
FNDA:1,_RNvMs0_NtCs3mbXwXxPNJN_8devsweep10scan_cacheNtB5_11CacheConfig14default_config
FNDA:1,_RNvMs0_NtCs3mbXwXxPNJN_8devsweep10scan_cacheNtB5_11CacheConfig16config_file_path
FNDA:1,_RNvMs0_NtCs3mbXwXxPNJN_8devsweep10scan_cacheNtB5_11CacheConfig4load
FNDA:1,_RNvMs0_NtCs3mbXwXxPNJN_8devsweep10scan_cacheNtB5_11CacheConfig7get_ttl
FNDA:2,_RNvMs1_NtCs3mbXwXxPNJN_8devsweep10scan_cacheNtB5_9ScanCache15cache_file_path
FNDA:1,_RNvMs1_NtCs3mbXwXxPNJN_8devsweep10scan_cacheNtB5_9ScanCache15update_category
FNDA:1,_RNvMs1_NtCs3mbXwXxPNJN_8devsweep10scan_cacheNtB5_9ScanCache3new
FNDA:1,_RNvMs1_NtCs3mbXwXxPNJN_8devsweep10scan_cacheNtB5_9ScanCache4load
FNDA:1,_RNvMs1_NtCs3mbXwXxPNJN_8devsweep10scan_cacheNtB5_9ScanCache4save
FNDA:1,_RNvMs3_NtCs3mbXwXxPNJN_8devsweep10scan_cacheNtB5_11PathTracker10into_paths
FNDA:1,_RNvMs3_NtCs3mbXwXxPNJN_8devsweep10scan_cacheNtB5_11PathTracker3new
FNDA:1,_RNvMs_NtCs3mbXwXxPNJN_8devsweep10scan_cacheNtB4_20CachedCategoryResult3new
FNDA:0,_RNvMs_NtCs3mbXwXxPNJN_8devsweep10scan_cacheNtB4_20CachedCategoryResult8with_ttl
FNDA:0,_RNvXs2_NtCs3mbXwXxPNJN_8devsweep10scan_cacheNtB5_9ScanCacheNtNtCskzPJi2J8k3N_4core7default7Default7default
FNDA:1,_RNvNtNtCs3mbXwXxPNJN_8devsweep10scan_cache5testss_20test_cache_save_load
FNDA:1,_RNvNtNtCs3mbXwXxPNJN_8devsweep10scan_cache5testss_35test_path_metadata_change_detection
FNDA:1,_RINvMs3_NtCs3mbXwXxPNJN_8devsweep10scan_cacheNtB6_11PathTracker5trackNtNtCsiThrkg7suPy_3std4path7PathBufEB8_
FNDA:0,_RNCNvMs0_NtCs3mbXwXxPNJN_8devsweep10scan_cacheNtB7_11CacheConfig16config_file_path0B9_
FNDA:0,_RNCNvMs1_NtCs3mbXwXxPNJN_8devsweep10scan_cacheNtB7_9ScanCache15cache_file_path0B9_
FNDA:0,_RNCNvMs1_NtCs3mbXwXxPNJN_8devsweep10scan_cacheNtB7_9ScanCache4save0B9_
FNDA:0,_RNCNvMs1_NtCs3mbXwXxPNJN_8devsweep10scan_cacheNtB7_9ScanCache4saves0_0B9_
FNDA:0,_RNCNvMs1_NtCs3mbXwXxPNJN_8devsweep10scan_cacheNtB7_9ScanCache4saves_0B9_
FNDA:1,_RINvMs3_NtCshVE6m5yoyjE_8devsweep10scan_cacheNtB6_11PathTracker5trackRNtNtCsiThrkg7suPy_3std4path4PathECsipz4vbXQYrS_15test_scan_cache
FNF:36
FNH:27
DA:17,443
DA:18,443
DA:19,443
DA:20,443
DA:21,443
DA:22,443
DA:23,443
DA:24,443
DA:26,188
DA:27,188
DA:28,188
DA:30,188
DA:32,0
DA:34,188
DA:50,254
DA:51,254
DA:52,254
DA:53,254
DA:54,254
DA:55,254
DA:56,254
DA:57,254
DA:58,254
DA:59,254
DA:60,254
DA:61,254
DA:62,254
DA:63,254
DA:65,112
DA:66,112
DA:67,112
DA:68,112
DA:71,219
DA:73,219
DA:74,89
DA:75,89
DA:76,3
DA:77,86
DA:78,0
DA:79,130
DA:82,403
DA:83,187
DA:84,0
DA:85,187
DA:87,216
DA:88,219
DA:91,50
DA:92,50
DA:93,50
DA:94,50
DA:95,50
DA:96,50
DA:97,50
DA:98,50
DA:99,50
DA:109,35
DA:110,35
DA:113,35
DA:114,35
DA:115,35
DA:116,35
DA:117,35
DA:118,35
DA:119,35
DA:120,35
DA:121,35
DA:122,35
DA:123,35
DA:124,35
DA:125,35
DA:127,35
DA:128,35
DA:130,259
DA:131,259
DA:132,259
DA:134,28
DA:135,28
DA:136,28
DA:137,28
DA:138,27
DA:139,1
DA:140,0
DA:141,1
DA:142,28
DA:144,9
DA:145,9
DA:147,9
DA:148,9
DA:149,9
DA:150,0
DA:152,9
DA:153,9
DA:155,9
DA:157,9
DA:158,9
DA:160,37
DA:161,37
DA:162,37
DA:163,37
DA:164,37
DA:165,37
DA:178,23
DA:179,23
DA:180,23
DA:181,23
DA:182,23
DA:183,23
DA:184,23
DA:187,27
DA:188,27
DA:189,27
DA:190,27
DA:192,0
DA:196,27
DA:197,27
DA:198,27
DA:201,13
DA:202,13
DA:205,13
DA:206,13
DA:207,13
DA:208,0
DA:210,13
DA:211,13
DA:213,13
DA:215,13
DA:216,13
DA:219,40
DA:220,40
DA:221,40
DA:222,40
DA:223,40
DA:224,40
DA:227,2
DA:228,2
DA:229,2
DA:230,2
DA:233,254
DA:234,254
DA:235,254
DA:236,254
DA:237,254
DA:238,254
DA:239,254
DA:242,254
DA:243,112
DA:244,142
DA:246,254
DA:247,254
DA:248,254
DA:251,51
DA:252,51
DA:253,50
DA:254,50
DA:255,0
DA:256,1
DA:257,1
DA:258,51
DA:261,177
DA:262,177
DA:263,169
DA:264,8
DA:266,177
DA:269,4
DA:270,4
DA:271,4
DA:274,8
DA:275,8
DA:276,8
DA:277,8
DA:281,1
DA:282,1
DA:283,1
DA:292,134
DA:293,134
DA:294,134
DA:295,134
DA:296,134
DA:299,254
DA:300,254
DA:301,254
DA:302,254
DA:303,254
DA:304,254
DA:307,134
DA:308,134
DA:309,134
DA:313,0
DA:314,0
DA:315,0
DA:325,1
DA:326,1
DA:329,1
DA:330,1
DA:333,1
DA:336,1
DA:337,1
DA:340,1
DA:341,1
DA:344,1
DA:345,1
DA:346,1
DA:347,1
DA:348,1
DA:349,1
DA:350,1
DA:351,1
DA:352,1
DA:354,1
DA:355,1
DA:357,1
DA:360,1
DA:361,1
DA:363,1
DA:364,1
BRF:0
BRH:0
LF:223
LH:204
end_of_record
SF:/Users/canggih/Documents/Kedata/cleanstorage/dev-cleaner/src/types.rs
FN:51,_RNvMNtCshVE6m5yoyjE_8devsweep5typesNtB2_11CleanupItem12with_details
FN:41,_RNvMNtCshVE6m5yoyjE_8devsweep5typesNtB2_11CleanupItem12with_warning
FN:36,_RNvMNtCshVE6m5yoyjE_8devsweep5typesNtB2_11CleanupItem19with_safe_to_delete
FN:46,_RNvMNtCshVE6m5yoyjE_8devsweep5typesNtB2_11CleanupItem20with_cleanup_command
FN:18,_RNvMNtCshVE6m5yoyjE_8devsweep5typesNtB2_11CleanupItem3new
FN:31,_RNvMNtCshVE6m5yoyjE_8devsweep5typesNtB2_11CleanupItem9with_path
FN:101,_RNvMs0_NtCshVE6m5yoyjE_8devsweep5typesNtB5_11CheckResult3new
FN:111,_RNvMs0_NtCshVE6m5yoyjE_8devsweep5typesNtB5_11CheckResult8add_item
FN:193,_RNvMs1_NtCshVE6m5yoyjE_8devsweep5typesNtB5_13CleanupAction10delete_dir
FN:217,_RNvMs1_NtCshVE6m5yoyjE_8devsweep5typesNtB5_13CleanupAction12with_warning
FN:204,_RNvMs1_NtCshVE6m5yoyjE_8devsweep5typesNtB5_13CleanupAction5shell
FN:179,_RNvMs1_NtCshVE6m5yoyjE_8devsweep5typesNtB5_13CleanupAction7command
FN:223,_RNvMs1_NtCshVE6m5yoyjE_8devsweep5typesNtB5_13CleanupAction9with_info
FN:83,_RNvMs_NtCshVE6m5yoyjE_8devsweep5typesNtB4_10ItemDetail15with_extra_info
FN:68,_RNvMs_NtCshVE6m5yoyjE_8devsweep5typesNtB4_10ItemDetail3new
FN:78,_RNvMs_NtCshVE6m5yoyjE_8devsweep5typesNtB4_10ItemDetail9with_path
FN:185,_RNCNvMs1_NtCshVE6m5yoyjE_8devsweep5typesNtB7_13CleanupAction7command0B9_
FN:185,_RNCNvMs1_NtCs3mbXwXxPNJN_8devsweep5typesNtB7_13CleanupAction7command0B9_
FN:51,_RNvMNtCs3mbXwXxPNJN_8devsweep5typesNtB2_11CleanupItem12with_details
FN:46,_RNvMNtCs3mbXwXxPNJN_8devsweep5typesNtB2_11CleanupItem20with_cleanup_command
FN:193,_RNvMs1_NtCs3mbXwXxPNJN_8devsweep5typesNtB5_13CleanupAction10delete_dir
FN:217,_RNvMs1_NtCs3mbXwXxPNJN_8devsweep5typesNtB5_13CleanupAction12with_warning
FN:204,_RNvMs1_NtCs3mbXwXxPNJN_8devsweep5typesNtB5_13CleanupAction5shell
FN:179,_RNvMs1_NtCs3mbXwXxPNJN_8devsweep5typesNtB5_13CleanupAction7command
FN:223,_RNvMs1_NtCs3mbXwXxPNJN_8devsweep5typesNtB5_13CleanupAction9with_info
FN:83,_RNvMs_NtCs3mbXwXxPNJN_8devsweep5typesNtB4_10ItemDetail15with_extra_info
FN:68,_RNvMs_NtCs3mbXwXxPNJN_8devsweep5typesNtB4_10ItemDetail3new
FN:78,_RNvMs_NtCs3mbXwXxPNJN_8devsweep5typesNtB4_10ItemDetail9with_path
FN:41,_RNvMNtCs3mbXwXxPNJN_8devsweep5typesNtB2_11CleanupItem12with_warning
FN:36,_RNvMNtCs3mbXwXxPNJN_8devsweep5typesNtB2_11CleanupItem19with_safe_to_delete
FN:18,_RNvMNtCs3mbXwXxPNJN_8devsweep5typesNtB2_11CleanupItem3new
FN:31,_RNvMNtCs3mbXwXxPNJN_8devsweep5typesNtB2_11CleanupItem9with_path
FN:101,_RNvMs0_NtCs3mbXwXxPNJN_8devsweep5typesNtB5_11CheckResult3new
FN:111,_RNvMs0_NtCs3mbXwXxPNJN_8devsweep5typesNtB5_11CheckResult8add_item
FNDA:31,_RNvMNtCshVE6m5yoyjE_8devsweep5typesNtB2_11CleanupItem12with_details
FNDA:163,_RNvMNtCshVE6m5yoyjE_8devsweep5typesNtB2_11CleanupItem12with_warning
FNDA:264,_RNvMNtCshVE6m5yoyjE_8devsweep5typesNtB2_11CleanupItem19with_safe_to_delete
FNDA:41,_RNvMNtCshVE6m5yoyjE_8devsweep5typesNtB2_11CleanupItem20with_cleanup_command
FNDA:499,_RNvMNtCshVE6m5yoyjE_8devsweep5typesNtB2_11CleanupItem3new
FNDA:331,_RNvMNtCshVE6m5yoyjE_8devsweep5typesNtB2_11CleanupItem9with_path
FNDA:299,_RNvMs0_NtCshVE6m5yoyjE_8devsweep5typesNtB5_11CheckResult3new
FNDA:475,_RNvMs0_NtCshVE6m5yoyjE_8devsweep5typesNtB5_11CheckResult8add_item
FNDA:0,_RNvMs1_NtCshVE6m5yoyjE_8devsweep5typesNtB5_13CleanupAction10delete_dir
FNDA:0,_RNvMs1_NtCshVE6m5yoyjE_8devsweep5typesNtB5_13CleanupAction12with_warning
FNDA:0,_RNvMs1_NtCshVE6m5yoyjE_8devsweep5typesNtB5_13CleanupAction5shell
FNDA:0,_RNvMs1_NtCshVE6m5yoyjE_8devsweep5typesNtB5_13CleanupAction7command
FNDA:0,_RNvMs1_NtCshVE6m5yoyjE_8devsweep5typesNtB5_13CleanupAction9with_info
FNDA:151,_RNvMs_NtCshVE6m5yoyjE_8devsweep5typesNtB4_10ItemDetail15with_extra_info
FNDA:194,_RNvMs_NtCshVE6m5yoyjE_8devsweep5typesNtB4_10ItemDetail3new
FNDA:41,_RNvMs_NtCshVE6m5yoyjE_8devsweep5typesNtB4_10ItemDetail9with_path
FNDA:0,_RNCNvMs1_NtCshVE6m5yoyjE_8devsweep5typesNtB7_13CleanupAction7command0B9_
FNDA:0,_RNCNvMs1_NtCs3mbXwXxPNJN_8devsweep5typesNtB7_13CleanupAction7command0B9_
FNDA:0,_RNvMNtCs3mbXwXxPNJN_8devsweep5typesNtB2_11CleanupItem12with_details
FNDA:0,_RNvMNtCs3mbXwXxPNJN_8devsweep5typesNtB2_11CleanupItem20with_cleanup_command
FNDA:0,_RNvMs1_NtCs3mbXwXxPNJN_8devsweep5typesNtB5_13CleanupAction10delete_dir
FNDA:0,_RNvMs1_NtCs3mbXwXxPNJN_8devsweep5typesNtB5_13CleanupAction12with_warning
FNDA:0,_RNvMs1_NtCs3mbXwXxPNJN_8devsweep5typesNtB5_13CleanupAction5shell
FNDA:0,_RNvMs1_NtCs3mbXwXxPNJN_8devsweep5typesNtB5_13CleanupAction7command
FNDA:0,_RNvMs1_NtCs3mbXwXxPNJN_8devsweep5typesNtB5_13CleanupAction9with_info
FNDA:0,_RNvMs_NtCs3mbXwXxPNJN_8devsweep5typesNtB4_10ItemDetail15with_extra_info
FNDA:0,_RNvMs_NtCs3mbXwXxPNJN_8devsweep5typesNtB4_10ItemDetail3new
FNDA:0,_RNvMs_NtCs3mbXwXxPNJN_8devsweep5typesNtB4_10ItemDetail9with_path
FNDA:7,_RNvMNtCs3mbXwXxPNJN_8devsweep5typesNtB2_11CleanupItem12with_warning
FNDA:7,_RNvMNtCs3mbXwXxPNJN_8devsweep5typesNtB2_11CleanupItem19with_safe_to_delete
FNDA:15,_RNvMNtCs3mbXwXxPNJN_8devsweep5typesNtB2_11CleanupItem3new
FNDA:14,_RNvMNtCs3mbXwXxPNJN_8devsweep5typesNtB2_11CleanupItem9with_path
FNDA:7,_RNvMs0_NtCs3mbXwXxPNJN_8devsweep5typesNtB5_11CheckResult3new
FNDA:14,_RNvMs0_NtCs3mbXwXxPNJN_8devsweep5typesNtB5_11CheckResult8add_item
FNF:17
FNH:11
DA:18,514
DA:19,514
DA:20,514
DA:21,514
DA:22,514
DA:23,514
DA:24,514
DA:25,514
DA:26,514
DA:27,514
DA:28,514
DA:29,514
DA:31,345
DA:32,345
DA:33,345
DA:34,345
DA:36,271
DA:37,271
DA:38,271
DA:39,271
DA:41,170
DA:42,170
DA:43,170
DA:44,170
DA:46,41
DA:47,41
DA:48,41
DA:49,41
DA:51,31
DA:52,31
DA:53,31
DA:54,31
DA:68,194
DA:69,194
DA:70,194
DA:71,194
DA:72,194
DA:73,194
DA:74,194
DA:75,194
DA:76,194
DA:78,41
DA:79,41
DA:80,41
DA:81,41
DA:83,151
DA:84,151
DA:85,151
DA:86,151
DA:101,306
DA:102,306
DA:103,306
DA:104,306
DA:105,306
DA:106,306
DA:107,306
DA:108,306
DA:109,306
DA:111,489
DA:112,489
DA:113,489
DA:114,489
DA:179,0
DA:181,0
DA:182,0
DA:184,0
DA:185,0
DA:187,0
DA:188,0
DA:190,0
DA:193,0
DA:194,0
DA:195,0
DA:196,0
DA:197,0
DA:198,0
DA:199,0
DA:200,0
DA:201,0
DA:204,0
DA:205,0
DA:206,0
DA:207,0
DA:208,0
DA:209,0
DA:210,0
DA:211,0
DA:212,0
DA:213,0
DA:214,0
DA:217,0
DA:218,0
DA:219,0
DA:220,0
DA:223,0
DA:224,0
DA:225,0
DA:226,0
BRF:0
BRH:0
LF:99
LH:62
end_of_record
SF:/Users/canggih/Documents/Kedata/cleanstorage/dev-cleaner/src/ui/sidebar.rs
FN:10,_RNvMNtNtCshVE6m5yoyjE_8devsweep2ui7sidebarNtB2_3Tab4icon
FN:19,_RNvMNtNtCshVE6m5yoyjE_8devsweep2ui7sidebarNtB2_3Tab5label
FN:10,_RNvMNtNtCs3mbXwXxPNJN_8devsweep2ui7sidebarNtB2_3Tab4icon
FN:19,_RNvMNtNtCs3mbXwXxPNJN_8devsweep2ui7sidebarNtB2_3Tab5label
FNDA:0,_RNvMNtNtCshVE6m5yoyjE_8devsweep2ui7sidebarNtB2_3Tab4icon
FNDA:0,_RNvMNtNtCshVE6m5yoyjE_8devsweep2ui7sidebarNtB2_3Tab5label
FNDA:0,_RNvMNtNtCs3mbXwXxPNJN_8devsweep2ui7sidebarNtB2_3Tab4icon
FNDA:0,_RNvMNtNtCs3mbXwXxPNJN_8devsweep2ui7sidebarNtB2_3Tab5label
FNF:2
FNH:0
DA:10,0
DA:11,0
DA:12,0
DA:13,0
DA:14,0
DA:15,0
DA:17,0
DA:19,0
DA:20,0
DA:21,0
DA:22,0
DA:23,0
DA:24,0
DA:26,0
BRF:0
BRH:0
LF:14
LH:0
end_of_record
SF:/Users/canggih/Documents/Kedata/cleanstorage/dev-cleaner/src/ui/theme.rs
FN:13,_RNvMNtNtCshVE6m5yoyjE_8devsweep2ui5themeNtB2_9ThemeMode6toggle
FN:20,_RNvMNtNtCshVE6m5yoyjE_8devsweep2ui5themeNtB2_9ThemeMode7is_dark
FN:24,_RNvMNtNtCshVE6m5yoyjE_8devsweep2ui5themeNtB2_9ThemeMode9icon_path
FN:265,_RNvMs_NtNtCshVE6m5yoyjE_8devsweep2ui5themeNtB4_5Theme10blue_hover
FN:294,_RNvMs_NtNtCshVE6m5yoyjE_8devsweep2ui5themeNtB4_5Theme10red_active
FN:287,_RNvMs_NtNtCshVE6m5yoyjE_8devsweep2ui5themeNtB4_5Theme11blue_active
FN:257,_RNvMs_NtNtCshVE6m5yoyjE_8devsweep2ui5themeNtB4_5Theme11blue_border
FN:239,_RNvMs_NtNtCshVE6m5yoyjE_8devsweep2ui5themeNtB4_5Theme11transparent
FN:243,_RNvMs_NtNtCshVE6m5yoyjE_8devsweep2ui5themeNtB4_5Theme13border_subtle
FN:279,_RNvMs_NtNtCshVE6m5yoyjE_8devsweep2ui5themeNtB4_5Theme14sapphire_hover
FN:301,_RNvMs_NtNtCshVE6m5yoyjE_8devsweep2ui5themeNtB4_5Theme15sapphire_active
FN:137,_RNvMs_NtNtCshVE6m5yoyjE_8devsweep2ui5themeNtB4_5Theme3red
FN:179,_RNvMs_NtNtCshVE6m5yoyjE_8devsweep2ui5themeNtB4_5Theme3sky
FN:37,_RNvMs_NtNtCshVE6m5yoyjE_8devsweep2ui5themeNtB4_5Theme4base
FN:123,_RNvMs_NtNtCshVE6m5yoyjE_8devsweep2ui5themeNtB4_5Theme4blue
FN:234,_RNvMs_NtNtCshVE6m5yoyjE_8devsweep2ui5themeNtB4_5Theme4info
FN:193,_RNvMs_NtNtCshVE6m5yoyjE_8devsweep2ui5themeNtB4_5Theme4pink
FN:165,_RNvMs_NtNtCshVE6m5yoyjE_8devsweep2ui5themeNtB4_5Theme4teal
FN:80,_RNvMs_NtNtCshVE6m5yoyjE_8devsweep2ui5themeNtB4_5Theme4text
FN:51,_RNvMs_NtNtCshVE6m5yoyjE_8devsweep2ui5themeNtB4_5Theme5crust
FN:230,_RNvMs_NtNtCshVE6m5yoyjE_8devsweep2ui5themeNtB4_5Theme5error
FN:130,_RNvMs_NtNtCshVE6m5yoyjE_8devsweep2ui5themeNtB4_5Theme5green
FN:158,_RNvMs_NtNtCshVE6m5yoyjE_8devsweep2ui5themeNtB4_5Theme5mauve
FN:151,_RNvMs_NtNtCshVE6m5yoyjE_8devsweep2ui5themeNtB4_5Theme5peach
FN:44,_RNvMs_NtNtCshVE6m5yoyjE_8devsweep2ui5themeNtB4_5Theme6mantle
FN:214,_RNvMs_NtNtCshVE6m5yoyjE_8devsweep2ui5themeNtB4_5Theme6maroon
FN:144,_RNvMs_NtNtCshVE6m5yoyjE_8devsweep2ui5themeNtB4_5Theme6yellow
FN:222,_RNvMs_NtNtCshVE6m5yoyjE_8devsweep2ui5themeNtB4_5Theme7success
FN:226,_RNvMs_NtNtCshVE6m5yoyjE_8devsweep2ui5themeNtB4_5Theme7warning
FN:200,_RNvMs_NtNtCshVE6m5yoyjE_8devsweep2ui5themeNtB4_5Theme8flamingo
FN:172,_RNvMs_NtNtCshVE6m5yoyjE_8devsweep2ui5themeNtB4_5Theme8lavender
FN:101,_RNvMs_NtNtCshVE6m5yoyjE_8devsweep2ui5themeNtB4_5Theme8overlay0
FN:108,_RNvMs_NtNtCshVE6m5yoyjE_8devsweep2ui5themeNtB4_5Theme8overlay1
FN:115,_RNvMs_NtNtCshVE6m5yoyjE_8devsweep2ui5themeNtB4_5Theme8overlay2
FN:186,_RNvMs_NtNtCshVE6m5yoyjE_8devsweep2ui5themeNtB4_5Theme8sapphire
FN:87,_RNvMs_NtNtCshVE6m5yoyjE_8devsweep2ui5themeNtB4_5Theme8subtext0
FN:94,_RNvMs_NtNtCshVE6m5yoyjE_8devsweep2ui5themeNtB4_5Theme8subtext1
FN:58,_RNvMs_NtNtCshVE6m5yoyjE_8devsweep2ui5themeNtB4_5Theme8surface0
FN:65,_RNvMs_NtNtCshVE6m5yoyjE_8devsweep2ui5themeNtB4_5Theme8surface1
FN:72,_RNvMs_NtNtCshVE6m5yoyjE_8devsweep2ui5themeNtB4_5Theme8surface2
FN:250,_RNvMs_NtNtCshVE6m5yoyjE_8devsweep2ui5themeNtB4_5Theme9blue_tint
FN:272,_RNvMs_NtNtCshVE6m5yoyjE_8devsweep2ui5themeNtB4_5Theme9red_hover
FN:207,_RNvMs_NtNtCshVE6m5yoyjE_8devsweep2ui5themeNtB4_5Theme9rosewater
FN:13,_RNvMNtNtCs3mbXwXxPNJN_8devsweep2ui5themeNtB2_9ThemeMode6toggle
FN:20,_RNvMNtNtCs3mbXwXxPNJN_8devsweep2ui5themeNtB2_9ThemeMode7is_dark
FN:24,_RNvMNtNtCs3mbXwXxPNJN_8devsweep2ui5themeNtB2_9ThemeMode9icon_path
FN:265,_RNvMs_NtNtCs3mbXwXxPNJN_8devsweep2ui5themeNtB4_5Theme10blue_hover
FN:294,_RNvMs_NtNtCs3mbXwXxPNJN_8devsweep2ui5themeNtB4_5Theme10red_active
FN:287,_RNvMs_NtNtCs3mbXwXxPNJN_8devsweep2ui5themeNtB4_5Theme11blue_active
FN:257,_RNvMs_NtNtCs3mbXwXxPNJN_8devsweep2ui5themeNtB4_5Theme11blue_border
FN:239,_RNvMs_NtNtCs3mbXwXxPNJN_8devsweep2ui5themeNtB4_5Theme11transparent
FN:243,_RNvMs_NtNtCs3mbXwXxPNJN_8devsweep2ui5themeNtB4_5Theme13border_subtle
FN:279,_RNvMs_NtNtCs3mbXwXxPNJN_8devsweep2ui5themeNtB4_5Theme14sapphire_hover
FN:301,_RNvMs_NtNtCs3mbXwXxPNJN_8devsweep2ui5themeNtB4_5Theme15sapphire_active
FN:137,_RNvMs_NtNtCs3mbXwXxPNJN_8devsweep2ui5themeNtB4_5Theme3red
FN:179,_RNvMs_NtNtCs3mbXwXxPNJN_8devsweep2ui5themeNtB4_5Theme3sky
FN:37,_RNvMs_NtNtCs3mbXwXxPNJN_8devsweep2ui5themeNtB4_5Theme4base
FN:123,_RNvMs_NtNtCs3mbXwXxPNJN_8devsweep2ui5themeNtB4_5Theme4blue
FN:234,_RNvMs_NtNtCs3mbXwXxPNJN_8devsweep2ui5themeNtB4_5Theme4info
FN:193,_RNvMs_NtNtCs3mbXwXxPNJN_8devsweep2ui5themeNtB4_5Theme4pink
FN:165,_RNvMs_NtNtCs3mbXwXxPNJN_8devsweep2ui5themeNtB4_5Theme4teal
FN:80,_RNvMs_NtNtCs3mbXwXxPNJN_8devsweep2ui5themeNtB4_5Theme4text
FN:51,_RNvMs_NtNtCs3mbXwXxPNJN_8devsweep2ui5themeNtB4_5Theme5crust
FN:230,_RNvMs_NtNtCs3mbXwXxPNJN_8devsweep2ui5themeNtB4_5Theme5error
FN:130,_RNvMs_NtNtCs3mbXwXxPNJN_8devsweep2ui5themeNtB4_5Theme5green
FN:158,_RNvMs_NtNtCs3mbXwXxPNJN_8devsweep2ui5themeNtB4_5Theme5mauve
FN:151,_RNvMs_NtNtCs3mbXwXxPNJN_8devsweep2ui5themeNtB4_5Theme5peach
FN:44,_RNvMs_NtNtCs3mbXwXxPNJN_8devsweep2ui5themeNtB4_5Theme6mantle
FN:214,_RNvMs_NtNtCs3mbXwXxPNJN_8devsweep2ui5themeNtB4_5Theme6maroon
FN:144,_RNvMs_NtNtCs3mbXwXxPNJN_8devsweep2ui5themeNtB4_5Theme6yellow
FN:222,_RNvMs_NtNtCs3mbXwXxPNJN_8devsweep2ui5themeNtB4_5Theme7success
FN:226,_RNvMs_NtNtCs3mbXwXxPNJN_8devsweep2ui5themeNtB4_5Theme7warning
FN:200,_RNvMs_NtNtCs3mbXwXxPNJN_8devsweep2ui5themeNtB4_5Theme8flamingo
FN:172,_RNvMs_NtNtCs3mbXwXxPNJN_8devsweep2ui5themeNtB4_5Theme8lavender
FN:101,_RNvMs_NtNtCs3mbXwXxPNJN_8devsweep2ui5themeNtB4_5Theme8overlay0
FN:108,_RNvMs_NtNtCs3mbXwXxPNJN_8devsweep2ui5themeNtB4_5Theme8overlay1
FN:115,_RNvMs_NtNtCs3mbXwXxPNJN_8devsweep2ui5themeNtB4_5Theme8overlay2
FN:186,_RNvMs_NtNtCs3mbXwXxPNJN_8devsweep2ui5themeNtB4_5Theme8sapphire
FN:87,_RNvMs_NtNtCs3mbXwXxPNJN_8devsweep2ui5themeNtB4_5Theme8subtext0
FN:94,_RNvMs_NtNtCs3mbXwXxPNJN_8devsweep2ui5themeNtB4_5Theme8subtext1
FN:58,_RNvMs_NtNtCs3mbXwXxPNJN_8devsweep2ui5themeNtB4_5Theme8surface0
FN:65,_RNvMs_NtNtCs3mbXwXxPNJN_8devsweep2ui5themeNtB4_5Theme8surface1
FN:72,_RNvMs_NtNtCs3mbXwXxPNJN_8devsweep2ui5themeNtB4_5Theme8surface2
FN:250,_RNvMs_NtNtCs3mbXwXxPNJN_8devsweep2ui5themeNtB4_5Theme9blue_tint
FN:272,_RNvMs_NtNtCs3mbXwXxPNJN_8devsweep2ui5themeNtB4_5Theme9red_hover
FN:207,_RNvMs_NtNtCs3mbXwXxPNJN_8devsweep2ui5themeNtB4_5Theme9rosewater
FNDA:0,_RNvMNtNtCshVE6m5yoyjE_8devsweep2ui5themeNtB2_9ThemeMode6toggle
FNDA:0,_RNvMNtNtCshVE6m5yoyjE_8devsweep2ui5themeNtB2_9ThemeMode7is_dark
FNDA:0,_RNvMNtNtCshVE6m5yoyjE_8devsweep2ui5themeNtB2_9ThemeMode9icon_path
FNDA:0,_RNvMs_NtNtCshVE6m5yoyjE_8devsweep2ui5themeNtB4_5Theme10blue_hover
FNDA:0,_RNvMs_NtNtCshVE6m5yoyjE_8devsweep2ui5themeNtB4_5Theme10red_active
FNDA:0,_RNvMs_NtNtCshVE6m5yoyjE_8devsweep2ui5themeNtB4_5Theme11blue_active
FNDA:0,_RNvMs_NtNtCshVE6m5yoyjE_8devsweep2ui5themeNtB4_5Theme11blue_border
FNDA:0,_RNvMs_NtNtCshVE6m5yoyjE_8devsweep2ui5themeNtB4_5Theme11transparent
FNDA:0,_RNvMs_NtNtCshVE6m5yoyjE_8devsweep2ui5themeNtB4_5Theme13border_subtle
FNDA:0,_RNvMs_NtNtCshVE6m5yoyjE_8devsweep2ui5themeNtB4_5Theme14sapphire_hover
FNDA:0,_RNvMs_NtNtCshVE6m5yoyjE_8devsweep2ui5themeNtB4_5Theme15sapphire_active
FNDA:0,_RNvMs_NtNtCshVE6m5yoyjE_8devsweep2ui5themeNtB4_5Theme3red
FNDA:0,_RNvMs_NtNtCshVE6m5yoyjE_8devsweep2ui5themeNtB4_5Theme3sky
FNDA:0,_RNvMs_NtNtCshVE6m5yoyjE_8devsweep2ui5themeNtB4_5Theme4base
FNDA:0,_RNvMs_NtNtCshVE6m5yoyjE_8devsweep2ui5themeNtB4_5Theme4blue
FNDA:0,_RNvMs_NtNtCshVE6m5yoyjE_8devsweep2ui5themeNtB4_5Theme4info
FNDA:0,_RNvMs_NtNtCshVE6m5yoyjE_8devsweep2ui5themeNtB4_5Theme4pink
FNDA:0,_RNvMs_NtNtCshVE6m5yoyjE_8devsweep2ui5themeNtB4_5Theme4teal
FNDA:0,_RNvMs_NtNtCshVE6m5yoyjE_8devsweep2ui5themeNtB4_5Theme4text
FNDA:0,_RNvMs_NtNtCshVE6m5yoyjE_8devsweep2ui5themeNtB4_5Theme5crust
FNDA:0,_RNvMs_NtNtCshVE6m5yoyjE_8devsweep2ui5themeNtB4_5Theme5error
FNDA:0,_RNvMs_NtNtCshVE6m5yoyjE_8devsweep2ui5themeNtB4_5Theme5green
FNDA:0,_RNvMs_NtNtCshVE6m5yoyjE_8devsweep2ui5themeNtB4_5Theme5mauve
FNDA:0,_RNvMs_NtNtCshVE6m5yoyjE_8devsweep2ui5themeNtB4_5Theme5peach
FNDA:0,_RNvMs_NtNtCshVE6m5yoyjE_8devsweep2ui5themeNtB4_5Theme6mantle
FNDA:0,_RNvMs_NtNtCshVE6m5yoyjE_8devsweep2ui5themeNtB4_5Theme6maroon
FNDA:0,_RNvMs_NtNtCshVE6m5yoyjE_8devsweep2ui5themeNtB4_5Theme6yellow
FNDA:0,_RNvMs_NtNtCshVE6m5yoyjE_8devsweep2ui5themeNtB4_5Theme7success
FNDA:0,_RNvMs_NtNtCshVE6m5yoyjE_8devsweep2ui5themeNtB4_5Theme7warning
FNDA:0,_RNvMs_NtNtCshVE6m5yoyjE_8devsweep2ui5themeNtB4_5Theme8flamingo
FNDA:0,_RNvMs_NtNtCshVE6m5yoyjE_8devsweep2ui5themeNtB4_5Theme8lavender
FNDA:0,_RNvMs_NtNtCshVE6m5yoyjE_8devsweep2ui5themeNtB4_5Theme8overlay0
FNDA:0,_RNvMs_NtNtCshVE6m5yoyjE_8devsweep2ui5themeNtB4_5Theme8overlay1
FNDA:0,_RNvMs_NtNtCshVE6m5yoyjE_8devsweep2ui5themeNtB4_5Theme8overlay2
FNDA:0,_RNvMs_NtNtCshVE6m5yoyjE_8devsweep2ui5themeNtB4_5Theme8sapphire
FNDA:0,_RNvMs_NtNtCshVE6m5yoyjE_8devsweep2ui5themeNtB4_5Theme8subtext0
FNDA:0,_RNvMs_NtNtCshVE6m5yoyjE_8devsweep2ui5themeNtB4_5Theme8subtext1
FNDA:0,_RNvMs_NtNtCshVE6m5yoyjE_8devsweep2ui5themeNtB4_5Theme8surface0
FNDA:0,_RNvMs_NtNtCshVE6m5yoyjE_8devsweep2ui5themeNtB4_5Theme8surface1
FNDA:0,_RNvMs_NtNtCshVE6m5yoyjE_8devsweep2ui5themeNtB4_5Theme8surface2
FNDA:0,_RNvMs_NtNtCshVE6m5yoyjE_8devsweep2ui5themeNtB4_5Theme9blue_tint
FNDA:0,_RNvMs_NtNtCshVE6m5yoyjE_8devsweep2ui5themeNtB4_5Theme9red_hover
FNDA:0,_RNvMs_NtNtCshVE6m5yoyjE_8devsweep2ui5themeNtB4_5Theme9rosewater
FNDA:0,_RNvMNtNtCs3mbXwXxPNJN_8devsweep2ui5themeNtB2_9ThemeMode6toggle
FNDA:0,_RNvMNtNtCs3mbXwXxPNJN_8devsweep2ui5themeNtB2_9ThemeMode7is_dark
FNDA:0,_RNvMNtNtCs3mbXwXxPNJN_8devsweep2ui5themeNtB2_9ThemeMode9icon_path
FNDA:0,_RNvMs_NtNtCs3mbXwXxPNJN_8devsweep2ui5themeNtB4_5Theme10blue_hover
FNDA:0,_RNvMs_NtNtCs3mbXwXxPNJN_8devsweep2ui5themeNtB4_5Theme10red_active
FNDA:0,_RNvMs_NtNtCs3mbXwXxPNJN_8devsweep2ui5themeNtB4_5Theme11blue_active
FNDA:0,_RNvMs_NtNtCs3mbXwXxPNJN_8devsweep2ui5themeNtB4_5Theme11blue_border
FNDA:0,_RNvMs_NtNtCs3mbXwXxPNJN_8devsweep2ui5themeNtB4_5Theme11transparent
FNDA:0,_RNvMs_NtNtCs3mbXwXxPNJN_8devsweep2ui5themeNtB4_5Theme13border_subtle
FNDA:0,_RNvMs_NtNtCs3mbXwXxPNJN_8devsweep2ui5themeNtB4_5Theme14sapphire_hover
FNDA:0,_RNvMs_NtNtCs3mbXwXxPNJN_8devsweep2ui5themeNtB4_5Theme15sapphire_active
FNDA:0,_RNvMs_NtNtCs3mbXwXxPNJN_8devsweep2ui5themeNtB4_5Theme3red
FNDA:0,_RNvMs_NtNtCs3mbXwXxPNJN_8devsweep2ui5themeNtB4_5Theme3sky
FNDA:0,_RNvMs_NtNtCs3mbXwXxPNJN_8devsweep2ui5themeNtB4_5Theme4base
FNDA:0,_RNvMs_NtNtCs3mbXwXxPNJN_8devsweep2ui5themeNtB4_5Theme4blue
FNDA:0,_RNvMs_NtNtCs3mbXwXxPNJN_8devsweep2ui5themeNtB4_5Theme4info
FNDA:0,_RNvMs_NtNtCs3mbXwXxPNJN_8devsweep2ui5themeNtB4_5Theme4pink
FNDA:0,_RNvMs_NtNtCs3mbXwXxPNJN_8devsweep2ui5themeNtB4_5Theme4teal
FNDA:0,_RNvMs_NtNtCs3mbXwXxPNJN_8devsweep2ui5themeNtB4_5Theme4text
FNDA:0,_RNvMs_NtNtCs3mbXwXxPNJN_8devsweep2ui5themeNtB4_5Theme5crust
FNDA:0,_RNvMs_NtNtCs3mbXwXxPNJN_8devsweep2ui5themeNtB4_5Theme5error
FNDA:0,_RNvMs_NtNtCs3mbXwXxPNJN_8devsweep2ui5themeNtB4_5Theme5green
FNDA:0,_RNvMs_NtNtCs3mbXwXxPNJN_8devsweep2ui5themeNtB4_5Theme5mauve
FNDA:0,_RNvMs_NtNtCs3mbXwXxPNJN_8devsweep2ui5themeNtB4_5Theme5peach
FNDA:0,_RNvMs_NtNtCs3mbXwXxPNJN_8devsweep2ui5themeNtB4_5Theme6mantle
FNDA:0,_RNvMs_NtNtCs3mbXwXxPNJN_8devsweep2ui5themeNtB4_5Theme6maroon
FNDA:0,_RNvMs_NtNtCs3mbXwXxPNJN_8devsweep2ui5themeNtB4_5Theme6yellow
FNDA:0,_RNvMs_NtNtCs3mbXwXxPNJN_8devsweep2ui5themeNtB4_5Theme7success
FNDA:0,_RNvMs_NtNtCs3mbXwXxPNJN_8devsweep2ui5themeNtB4_5Theme7warning
FNDA:0,_RNvMs_NtNtCs3mbXwXxPNJN_8devsweep2ui5themeNtB4_5Theme8flamingo
FNDA:0,_RNvMs_NtNtCs3mbXwXxPNJN_8devsweep2ui5themeNtB4_5Theme8lavender
FNDA:0,_RNvMs_NtNtCs3mbXwXxPNJN_8devsweep2ui5themeNtB4_5Theme8overlay0
FNDA:0,_RNvMs_NtNtCs3mbXwXxPNJN_8devsweep2ui5themeNtB4_5Theme8overlay1
FNDA:0,_RNvMs_NtNtCs3mbXwXxPNJN_8devsweep2ui5themeNtB4_5Theme8overlay2
FNDA:0,_RNvMs_NtNtCs3mbXwXxPNJN_8devsweep2ui5themeNtB4_5Theme8sapphire
FNDA:0,_RNvMs_NtNtCs3mbXwXxPNJN_8devsweep2ui5themeNtB4_5Theme8subtext0
FNDA:0,_RNvMs_NtNtCs3mbXwXxPNJN_8devsweep2ui5themeNtB4_5Theme8subtext1
FNDA:0,_RNvMs_NtNtCs3mbXwXxPNJN_8devsweep2ui5themeNtB4_5Theme8surface0
FNDA:0,_RNvMs_NtNtCs3mbXwXxPNJN_8devsweep2ui5themeNtB4_5Theme8surface1
FNDA:0,_RNvMs_NtNtCs3mbXwXxPNJN_8devsweep2ui5themeNtB4_5Theme8surface2
FNDA:0,_RNvMs_NtNtCs3mbXwXxPNJN_8devsweep2ui5themeNtB4_5Theme9blue_tint
FNDA:0,_RNvMs_NtNtCs3mbXwXxPNJN_8devsweep2ui5themeNtB4_5Theme9red_hover
FNDA:0,_RNvMs_NtNtCs3mbXwXxPNJN_8devsweep2ui5themeNtB4_5Theme9rosewater
FNF:43
FNH:0
DA:13,0
DA:14,0
DA:15,0
DA:16,0
DA:18,0
DA:20,0
DA:21,0
DA:22,0
DA:24,0
DA:25,0
DA:26,0
DA:27,0
DA:29,0
DA:37,0
DA:38,0
DA:39,0
DA:40,0
DA:42,0
DA:44,0
DA:45,0
DA:46,0
DA:47,0
DA:49,0
DA:51,0
DA:52,0
DA:53,0
DA:54,0
DA:56,0
DA:58,0
DA:59,0
DA:60,0
DA:61,0
DA:63,0
DA:65,0
DA:66,0
DA:67,0
DA:68,0
DA:70,0
DA:72,0
DA:73,0
DA:74,0
DA:75,0
DA:77,0
DA:80,0
DA:81,0
DA:82,0
DA:83,0
DA:85,0
DA:87,0
DA:88,0
DA:89,0
DA:90,0
DA:92,0
DA:94,0
DA:95,0
DA:96,0
DA:97,0
DA:99,0
DA:101,0
DA:102,0
DA:103,0
DA:104,0
DA:106,0
DA:108,0
DA:109,0
DA:110,0
DA:111,0
DA:113,0
DA:115,0
DA:116,0
DA:117,0
DA:118,0
DA:120,0
DA:123,0
DA:124,0
DA:125,0
DA:126,0
DA:128,0
DA:130,0
DA:131,0
DA:132,0
DA:133,0
DA:135,0
DA:137,0
DA:138,0
DA:139,0
DA:140,0
DA:142,0
DA:144,0
DA:145,0
DA:146,0
DA:147,0
DA:149,0
DA:151,0
DA:152,0
DA:153,0
DA:154,0
DA:156,0
DA:158,0
DA:159,0
DA:160,0
DA:161,0
DA:163,0
DA:165,0
DA:166,0
DA:167,0
DA:168,0
DA:170,0
DA:172,0
DA:173,0
DA:174,0
DA:175,0
DA:177,0
DA:179,0
DA:180,0
DA:181,0
DA:182,0
DA:184,0
DA:186,0
DA:187,0
DA:188,0
DA:189,0
DA:191,0
DA:193,0
DA:194,0
DA:195,0
DA:196,0
DA:198,0
DA:200,0
DA:201,0
DA:202,0
DA:203,0
DA:205,0
DA:207,0
DA:208,0
DA:209,0
DA:210,0
DA:212,0
DA:214,0
DA:215,0
DA:216,0
DA:217,0
DA:219,0
DA:222,0
DA:223,0
DA:224,0
DA:226,0
DA:227,0
DA:228,0
DA:230,0
DA:231,0
DA:232,0
DA:234,0
DA:235,0
DA:236,0
DA:239,0
DA:240,0
DA:241,0
DA:243,0
DA:244,0
DA:245,0
DA:246,0
DA:248,0
DA:250,0
DA:251,0
DA:252,0
DA:253,0
DA:255,0
DA:257,0
DA:258,0
DA:259,0
DA:260,0
DA:262,0
DA:265,0
DA:266,0
DA:267,0
DA:268,0
DA:270,0
DA:272,0
DA:273,0
DA:274,0
DA:275,0
DA:277,0
DA:279,0
DA:280,0
DA:281,0
DA:282,0
DA:284,0
DA:287,0
DA:288,0
DA:289,0
DA:290,0
DA:292,0
DA:294,0
DA:295,0
DA:296,0
DA:297,0
DA:299,0
DA:301,0
DA:302,0
DA:303,0
DA:304,0
DA:306,0
BRF:0
BRH:0
LF:203
LH:0
end_of_record
SF:/Users/canggih/Documents/Kedata/cleanstorage/dev-cleaner/src/utils.rs
FN:13,_RINvNtCshVE6m5yoyjE_8devsweep5utils12get_dir_sizeNtNtCsiThrkg7suPy_3std4path7PathBufEB4_
FN:13,_RINvNtCshVE6m5yoyjE_8devsweep5utils12get_dir_sizeRNtNtCsiThrkg7suPy_3std4path4PathEB4_
FN:13,_RINvNtCshVE6m5yoyjE_8devsweep5utils12get_dir_sizeRNtNtCsiThrkg7suPy_3std4path7PathBufEB4_
FN:22,_RNCINvNtCshVE6m5yoyjE_8devsweep5utils12get_dir_sizeNtNtCsiThrkg7suPy_3std4path7PathBufE0B6_
FN:24,_RNCINvNtCshVE6m5yoyjE_8devsweep5utils12get_dir_sizeNtNtCsiThrkg7suPy_3std4path7PathBufEs0_0B6_
FN:25,_RNCINvNtCshVE6m5yoyjE_8devsweep5utils12get_dir_sizeNtNtCsiThrkg7suPy_3std4path7PathBufEs1_0B6_
FN:23,_RNCINvNtCshVE6m5yoyjE_8devsweep5utils12get_dir_sizeNtNtCsiThrkg7suPy_3std4path7PathBufEs_0B6_
FN:22,_RNCINvNtCshVE6m5yoyjE_8devsweep5utils12get_dir_sizeRNtNtCsiThrkg7suPy_3std4path4PathE0B6_
FN:24,_RNCINvNtCshVE6m5yoyjE_8devsweep5utils12get_dir_sizeRNtNtCsiThrkg7suPy_3std4path4PathEs0_0B6_
FN:25,_RNCINvNtCshVE6m5yoyjE_8devsweep5utils12get_dir_sizeRNtNtCsiThrkg7suPy_3std4path4PathEs1_0B6_
FN:23,_RNCINvNtCshVE6m5yoyjE_8devsweep5utils12get_dir_sizeRNtNtCsiThrkg7suPy_3std4path4PathEs_0B6_
FN:22,_RNCINvNtCshVE6m5yoyjE_8devsweep5utils12get_dir_sizeRNtNtCsiThrkg7suPy_3std4path7PathBufE0B6_
FN:24,_RNCINvNtCshVE6m5yoyjE_8devsweep5utils12get_dir_sizeRNtNtCsiThrkg7suPy_3std4path7PathBufEs0_0B6_
FN:25,_RNCINvNtCshVE6m5yoyjE_8devsweep5utils12get_dir_sizeRNtNtCsiThrkg7suPy_3std4path7PathBufEs1_0B6_
FN:23,_RNCINvNtCshVE6m5yoyjE_8devsweep5utils12get_dir_sizeRNtNtCsiThrkg7suPy_3std4path7PathBufEs_0B6_
FN:48,_RNCNCNCNvNtCshVE6m5yoyjE_8devsweep5utils13sort_versions000B9_
FN:49,_RNCNCNCNvNtCshVE6m5yoyjE_8devsweep5utils13sort_versions00s_0B9_
FN:47,_RNCNCNvNtCshVE6m5yoyjE_8devsweep5utils13sort_versions00B7_
FN:35,_RNCNvNtCshVE6m5yoyjE_8devsweep5utils11run_command0B5_
FN:36,_RNCNvNtCshVE6m5yoyjE_8devsweep5utils11run_commands_0B5_
FN:46,_RNCNvNtCshVE6m5yoyjE_8devsweep5utils13sort_versions0B5_
FN:8,_RNvNtCshVE6m5yoyjE_8devsweep5utils11format_size
FN:30,_RNvNtCshVE6m5yoyjE_8devsweep5utils11run_command
FN:45,_RNvNtCshVE6m5yoyjE_8devsweep5utils13sort_versions
FN:40,_RNvNtCshVE6m5yoyjE_8devsweep5utils8home_dir
FN:63,_RNvNtNtCs3mbXwXxPNJN_8devsweep5utils5testss_16test_format_size
FN:75,_RNvNtNtCs3mbXwXxPNJN_8devsweep5utils5testss_18test_sort_versions
FN:8,_RNvNtCs3mbXwXxPNJN_8devsweep5utils11format_size
FN:30,_RNvNtCs3mbXwXxPNJN_8devsweep5utils11run_command
FN:45,_RNvNtCs3mbXwXxPNJN_8devsweep5utils13sort_versions
FN:40,_RNvNtCs3mbXwXxPNJN_8devsweep5utils8home_dir
FN:13,_RINvNtCs3mbXwXxPNJN_8devsweep5utils12get_dir_sizeRNtNtCsiThrkg7suPy_3std4path7PathBufEB4_
FN:22,_RNCINvNtCs3mbXwXxPNJN_8devsweep5utils12get_dir_sizeRNtNtCsiThrkg7suPy_3std4path7PathBufE0B6_
FN:24,_RNCINvNtCs3mbXwXxPNJN_8devsweep5utils12get_dir_sizeRNtNtCsiThrkg7suPy_3std4path7PathBufEs0_0B6_
FN:25,_RNCINvNtCs3mbXwXxPNJN_8devsweep5utils12get_dir_sizeRNtNtCsiThrkg7suPy_3std4path7PathBufEs1_0B6_
FN:23,_RNCINvNtCs3mbXwXxPNJN_8devsweep5utils12get_dir_sizeRNtNtCsiThrkg7suPy_3std4path7PathBufEs_0B6_
FN:48,_RNCNCNCNvNtCs3mbXwXxPNJN_8devsweep5utils13sort_versions000B9_
FN:49,_RNCNCNCNvNtCs3mbXwXxPNJN_8devsweep5utils13sort_versions00s_0B9_
FN:47,_RNCNCNvNtCs3mbXwXxPNJN_8devsweep5utils13sort_versions00B7_
FN:35,_RNCNvNtCs3mbXwXxPNJN_8devsweep5utils11run_command0B5_
FN:36,_RNCNvNtCs3mbXwXxPNJN_8devsweep5utils11run_commands_0B5_
FN:46,_RNCNvNtCs3mbXwXxPNJN_8devsweep5utils13sort_versions0B5_
FNDA:1210,_RINvNtCshVE6m5yoyjE_8devsweep5utils12get_dir_sizeNtNtCsiThrkg7suPy_3std4path7PathBufEB4_
FNDA:70,_RINvNtCshVE6m5yoyjE_8devsweep5utils12get_dir_sizeRNtNtCsiThrkg7suPy_3std4path4PathEB4_
FNDA:3213,_RINvNtCshVE6m5yoyjE_8devsweep5utils12get_dir_sizeRNtNtCsiThrkg7suPy_3std4path7PathBufEB4_
FNDA:263980,_RNCINvNtCshVE6m5yoyjE_8devsweep5utils12get_dir_sizeNtNtCsiThrkg7suPy_3std4path7PathBufE0B6_
FNDA:219910,_RNCINvNtCshVE6m5yoyjE_8devsweep5utils12get_dir_sizeNtNtCsiThrkg7suPy_3std4path7PathBufEs0_0B6_
FNDA:219910,_RNCINvNtCshVE6m5yoyjE_8devsweep5utils12get_dir_sizeNtNtCsiThrkg7suPy_3std4path7PathBufEs1_0B6_
FNDA:263980,_RNCINvNtCshVE6m5yoyjE_8devsweep5utils12get_dir_sizeNtNtCsiThrkg7suPy_3std4path7PathBufEs_0B6_
FNDA:34020,_RNCINvNtCshVE6m5yoyjE_8devsweep5utils12get_dir_sizeRNtNtCsiThrkg7suPy_3std4path4PathE0B6_
FNDA:30620,_RNCINvNtCshVE6m5yoyjE_8devsweep5utils12get_dir_sizeRNtNtCsiThrkg7suPy_3std4path4PathEs0_0B6_
FNDA:30620,_RNCINvNtCshVE6m5yoyjE_8devsweep5utils12get_dir_sizeRNtNtCsiThrkg7suPy_3std4path4PathEs1_0B6_
FNDA:34020,_RNCINvNtCshVE6m5yoyjE_8devsweep5utils12get_dir_sizeRNtNtCsiThrkg7suPy_3std4path4PathEs_0B6_
FNDA:2307529,_RNCINvNtCshVE6m5yoyjE_8devsweep5utils12get_dir_sizeRNtNtCsiThrkg7suPy_3std4path7PathBufE0B6_
FNDA:1997647,_RNCINvNtCshVE6m5yoyjE_8devsweep5utils12get_dir_sizeRNtNtCsiThrkg7suPy_3std4path7PathBufEs0_0B6_
FNDA:1997647,_RNCINvNtCshVE6m5yoyjE_8devsweep5utils12get_dir_sizeRNtNtCsiThrkg7suPy_3std4path7PathBufEs1_0B6_
FNDA:2307439,_RNCINvNtCshVE6m5yoyjE_8devsweep5utils12get_dir_sizeRNtNtCsiThrkg7suPy_3std4path7PathBufEs_0B6_
FNDA:32883,_RNCNCNCNvNtCshVE6m5yoyjE_8devsweep5utils13sort_versions000B9_
FNDA:15826,_RNCNCNCNvNtCshVE6m5yoyjE_8devsweep5utils13sort_versions00s_0B9_
FNDA:5352,_RNCNCNvNtCshVE6m5yoyjE_8devsweep5utils13sort_versions00B7_
FNDA:72,_RNCNvNtCshVE6m5yoyjE_8devsweep5utils11run_command0B5_
FNDA:62,_RNCNvNtCshVE6m5yoyjE_8devsweep5utils11run_commands_0B5_
FNDA:2676,_RNCNvNtCshVE6m5yoyjE_8devsweep5utils13sort_versions0B5_
FNDA:962,_RNvNtCshVE6m5yoyjE_8devsweep5utils11format_size
FNDA:72,_RNvNtCshVE6m5yoyjE_8devsweep5utils11run_command
FNDA:331,_RNvNtCshVE6m5yoyjE_8devsweep5utils13sort_versions
FNDA:131,_RNvNtCshVE6m5yoyjE_8devsweep5utils8home_dir
FNDA:1,_RNvNtNtCs3mbXwXxPNJN_8devsweep5utils5testss_16test_format_size
FNDA:1,_RNvNtNtCs3mbXwXxPNJN_8devsweep5utils5testss_18test_sort_versions
FNDA:18,_RNvNtCs3mbXwXxPNJN_8devsweep5utils11format_size
FNDA:16,_RNvNtCs3mbXwXxPNJN_8devsweep5utils11run_command
FNDA:1,_RNvNtCs3mbXwXxPNJN_8devsweep5utils13sort_versions
FNDA:8,_RNvNtCs3mbXwXxPNJN_8devsweep5utils8home_dir
FNDA:21,_RINvNtCs3mbXwXxPNJN_8devsweep5utils12get_dir_sizeRNtNtCsiThrkg7suPy_3std4path7PathBufEB4_
FNDA:22652,_RNCINvNtCs3mbXwXxPNJN_8devsweep5utils12get_dir_sizeRNtNtCsiThrkg7suPy_3std4path7PathBufE0B6_
FNDA:18648,_RNCINvNtCs3mbXwXxPNJN_8devsweep5utils12get_dir_sizeRNtNtCsiThrkg7suPy_3std4path7PathBufEs0_0B6_
FNDA:18648,_RNCINvNtCs3mbXwXxPNJN_8devsweep5utils12get_dir_sizeRNtNtCsiThrkg7suPy_3std4path7PathBufEs1_0B6_
FNDA:22652,_RNCINvNtCs3mbXwXxPNJN_8devsweep5utils12get_dir_sizeRNtNtCsiThrkg7suPy_3std4path7PathBufEs_0B6_
FNDA:63,_RNCNCNCNvNtCs3mbXwXxPNJN_8devsweep5utils13sort_versions000B9_
FNDA:36,_RNCNCNCNvNtCs3mbXwXxPNJN_8devsweep5utils13sort_versions00s_0B9_
FNDA:12,_RNCNCNvNtCs3mbXwXxPNJN_8devsweep5utils13sort_versions00B7_
FNDA:16,_RNCNvNtCs3mbXwXxPNJN_8devsweep5utils11run_command0B5_
FNDA:16,_RNCNvNtCs3mbXwXxPNJN_8devsweep5utils11run_commands_0B5_
FNDA:6,_RNCNvNtCs3mbXwXxPNJN_8devsweep5utils13sort_versions0B5_
FNF:17
FNH:17
DA:8,980
DA:9,980
DA:10,980
DA:13,4514
DA:14,4514
DA:15,4514
DA:16,0
DA:17,4514
DA:19,4514
DA:20,4514
DA:21,4514
DA:22,2628181
DA:23,2628091
DA:24,2266825
DA:25,2266825
DA:26,4514
DA:27,4514
DA:30,88
DA:31,88
DA:32,88
DA:33,88
DA:34,88
DA:35,88
DA:36,88
DA:37,88
DA:40,139
DA:41,139
DA:42,139
DA:45,332
DA:46,2682
DA:47,5364
DA:48,32946
DA:49,15862
DA:50,5364
DA:51,5364
DA:52,2682
DA:53,2682
DA:54,2682
DA:55,2682
DA:56,332
DA:63,1
DA:64,1
DA:66,1
DA:69,1
DA:70,1
DA:71,1
DA:72,1
DA:75,1
DA:76,1
DA:77,1
DA:78,1
DA:79,1
DA:80,1
DA:82,1
DA:83,1
DA:84,1
DA:85,1
DA:86,1
DA:87,1
BRF:0
BRH:0
LF:69
LH:68
end_of_record